ccopy_reg
_reconstructor
p1
(cLogs
Logs
p2
c__builtin__
list
p3
(lp4
g1
(cLogObject
LogObject
p5
c__builtin__
object
p6
NtRp7
(dp8
S'timestamp'
p9
S'2015-06-29_17-24-10'
p10
sS'kind'
p11
Vuse
p12
sS'_rating'
p13
NsS'seq'
p14
(lp15
VCm
p16
asS'tags'
p17
(dp18
S'suggestion_list'
p19
(lp20
g1
(cresource
SuggestionItem
p21
g6
NtRp22
(dp23
g11
S'start'
p24
sS'inds'
p25
(lp26
I0
asg14
(lp27
S'Cm'
p28
asg17
Nsbag1
(g21
g6
NtRp29
(dp30
g11
g24
sg25
(lp31
I0
asg14
(lp32
S'Bb'
p33
asg17
Nsbag1
(g21
g6
NtRp34
(dp35
g11
g24
sg25
(lp36
I0
asg14
(lp37
S'F/C'
p38
asg17
Nsbag1
(g21
g6
NtRp39
(dp40
g11
g24
sg25
(lp41
I0
asg14
(lp42
S'G7'
p43
asg17
Nsbag1
(g21
g6
NtRp44
(dp45
g11
g24
sg25
(lp46
I0
asg14
(lp47
S'Dm7'
p48
asg17
Nsbag1
(g21
g6
NtRp49
(dp50
g11
g24
sg25
(lp51
I0
asg14
(lp52
S'Cmaj7'
p53
asg17
Nsbag1
(g21
g6
NtRp54
(dp55
g11
g24
sg25
(lp56
I0
asg14
(lp57
S'F#dim'
p58
asg17
NsbasS'suggestion_item'
p59
g1
(g21
g6
NtRp60
(dp61
g11
g24
sg25
(lp62
I0
asg14
(lp63
g28
asg17
NsbsS'author'
p64
Vmachine
p65
ssbag1
(g5
g6
NtRp66
(dp67
g9
S'2015-06-29_17-24-28'
p68
sg11
Vuse
p69
sg13
Nsg14
(lp70
VCm
p71
aVB-
p72
asg17
(dp73
g19
(lp74
g1
(g21
g6
NtRp75
(dp76
g11
S'next'
p77
sg25
(lp78
I1
asg14
(lp79
VCm
p80
aS'Bb'
p81
asg17
Nsbag1
(g21
g6
NtRp82
(dp83
g11
g77
sg25
g78
sg14
(lp84
g80
aS'F'
asg17
Nsbag1
(g21
g6
NtRp85
(dp86
g11
g77
sg25
g78
sg14
(lp87
g80
aS'Ab'
p88
asg17
Nsbag1
(g21
g6
NtRp89
(dp90
g11
g77
sg25
g78
sg14
(lp91
g80
aS'Eb'
p92
asg17
Nsbag1
(g21
g6
NtRp93
(dp94
g11
g77
sg25
g78
sg14
(lp95
g80
aS'G'
asg17
Nsbasg59
g1
(g21
g6
NtRp96
(dp97
g11
g77
sg25
(lp98
I1
asg14
(lp99
g80
ag81
asg17
Nsbsg64
Vmachine
p100
ssbag1
(g5
g6
NtRp101
(dp102
g9
S'2015-06-29_17-24-30'
p103
sg11
Vuse
p104
sg13
Nsg14
(lp105
VCm
p106
aVB-
p107
aVC
asg17
(dp108
g19
(lp109
g1
(g21
g6
NtRp110
(dp111
g11
g77
sg25
(lp112
I2
asg14
(lp113
VCm
p114
aVBb
p115
aS'C'
asg17
Nsbag1
(g21
g6
NtRp116
(dp117
g11
g77
sg25
g112
sg14
(lp118
g114
ag115
aS'F'
asg17
Nsbag1
(g21
g6
NtRp119
(dp120
g11
g77
sg25
g112
sg14
(lp121
g114
ag115
aS'Cm'
p122
asg17
Nsbag1
(g21
g6
NtRp123
(dp124
g11
g77
sg25
g112
sg14
(lp125
g114
ag115
ag88
asg17
Nsbag1
(g21
g6
NtRp126
(dp127
g11
g77
sg25
g112
sg14
(lp128
g114
ag115
aS'G'
asg17
Nsbag1
(g21
g6
NtRp129
(dp130
g11
S'side_ripple'
p131
sg25
(lp132
I0
asg14
(lp133
S'CmM9'
p134
ag115
asg17
(dp135
S'source'
p136
S'subs'
p137
sS'context_rank'
p138
I0
ssbag1
(g21
g6
NtRp139
(dp140
g11
g131
sg25
(lp141
I0
asg14
(lp142
S'Ab7'
p143
ag115
asg17
(dp144
g136
g137
sg138
I1
ssbag1
(g21
g6
NtRp145
(dp146
g11
g131
sg25
(lp147
I0
asg14
(lp148
g92
ag115
asg17
(dp149
g136
S'sim'
p150
sg138
I6
ssbag1
(g21
g6
NtRp151
(dp152
g11
g131
sg25
(lp153
I0
asg14
(lp154
S'Gb'
p155
ag115
asg17
(dp156
g136
g150
sg138
I53
ssbasg59
g1
(g21
g6
NtRp157
(dp158
g11
g77
sg25
(lp159
I2
asg14
(lp160
g114
ag115
aS'C'
asg17
Nsbsg64
Vmachine
p161
ssbag1
(g5
g6
NtRp162
(dp163
g9
S'2015-06-29_17-24-44'
p164
sg11
Vuse
p165
sg13
Nsg14
(lp166
VCm
p167
aVE-
p168
asg17
(dp169
g19
(lp170
g1
(g21
g6
NtRp171
(dp172
g11
g77
sg25
(lp173
I1
asg14
(lp174
VCm
p175
ag81
asg17
Nsbag1
(g21
g6
NtRp176
(dp177
g11
g77
sg25
g173
sg14
(lp178
g175
aS'F'
asg17
Nsbag1
(g21
g6
NtRp179
(dp180
g11
g77
sg25
g173
sg14
(lp181
g175
ag88
asg17
Nsbag1
(g21
g6
NtRp182
(dp183
g11
g77
sg25
g173
sg14
(lp184
g175
ag92
asg17
Nsbag1
(g21
g6
NtRp185
(dp186
g11
g77
sg25
g173
sg14
(lp187
g175
aS'G'
asg17
Nsbasg59
g1
(g21
g6
NtRp188
(dp189
g11
g77
sg25
(lp190
I1
asg14
(lp191
g175
ag92
asg17
Nsbsg64
Vmachine
p192
ssbag1
(g5
g6
NtRp193
(dp194
g9
S'2015-06-29_17-24-53'
p195
sg11
Vuse
p196
sg13
Nsg14
(lp197
VCm
p198
aVE-
p199
aVF
asg17
(dp200
g19
(lp201
g1
(g21
g6
NtRp202
(dp203
g11
g77
sg25
(lp204
I2
asg14
(lp205
VCm
p206
aVEb
p207
ag88
asg17
Nsbag1
(g21
g6
NtRp208
(dp209
g11
g77
sg25
g204
sg14
(lp210
g206
ag207
ag122
asg17
Nsbag1
(g21
g6
NtRp211
(dp212
g11
g77
sg25
g204
sg14
(lp213
g206
ag207
aS'F'
asg17
Nsbag1
(g21
g6
NtRp214
(dp215
g11
g77
sg25
g204
sg14
(lp216
g206
ag207
ag81
asg17
Nsbag1
(g21
g6
NtRp217
(dp218
g11
g77
sg25
g204
sg14
(lp219
g206
ag207
aS'Fm'
p220
asg17
Nsbag1
(g21
g6
NtRp221
(dp222
g11
g131
sg25
(lp223
I0
asg14
(lp224
S'Cm/Eb'
p225
ag207
asg17
(dp226
g136
g137
sg138
I0
ssbag1
(g21
g6
NtRp227
(dp228
g11
g131
sg25
(lp229
I0
asg14
(lp230
S'Bb'
p231
ag207
asg17
(dp232
g136
g137
sg138
I1
ssbag1
(g21
g6
NtRp233
(dp234
g11
g131
sg25
(lp235
I0
asg14
(lp236
g92
ag207
asg17
(dp237
g136
g150
sg138
I7
ssbag1
(g21
g6
NtRp238
(dp239
g11
g131
sg25
(lp240
I0
asg14
(lp241
g155
ag207
asg17
(dp242
g136
g150
sg138
I36
ssbasg59
g1
(g21
g6
NtRp243
(dp244
g11
g77
sg25
(lp245
I2
asg14
(lp246
g206
ag207
aS'F'
asg17
Nsbsg64
Vmachine
p247
ssbag1
(g5
g6
NtRp248
(dp249
g9
S'2015-06-29_17-25-00'
p250
sg11
Vuse
p251
sg13
Nsg14
(lp252
VCm
p253
aVE-
p254
aVF
aVG
asg17
(dp255
g19
(lp256
g1
(g21
g6
NtRp257
(dp258
g11
g77
sg25
(lp259
I3
asg14
(lp260
VCm
p261
aVEb
p262
aVF
aS'C'
asg17
Nsbag1
(g21
g6
NtRp263
(dp264
g11
g77
sg25
g259
sg14
(lp265
g261
ag262
aVF
aS'G'
asg17
Nsbag1
(g21
g6
NtRp266
(dp267
g11
g77
sg25
g259
sg14
(lp268
g261
ag262
aVF
ag92
asg17
Nsbag1
(g21
g6
NtRp269
(dp270
g11
g77
sg25
g259
sg14
(lp271
g261
ag262
aVF
aS'Am'
p272
asg17
Nsbag1
(g21
g6
NtRp273
(dp274
g11
g77
sg25
g259
sg14
(lp275
g261
ag262
aVF
ag122
asg17
Nsbag1
(g21
g6
NtRp276
(dp277
g11
g131
sg25
(lp278
I1
asg14
(lp279
g261
ag81
aVF
asg17
(dp280
g136
g137
sg138
I0
ssbag1
(g21
g6
NtRp281
(dp282
g11
g131
sg25
(lp283
I1
asg14
(lp284
g261
aS'G'
aVF
asg17
(dp285
g136
g137
sg138
I2
ssbag1
(g21
g6
NtRp286
(dp287
g11
g131
sg25
(lp288
I1
asg14
(lp289
g261
aS'Gm'
p290
aVF
asg17
(dp291
g136
g150
sg138
I3
ssbasg59
g1
(g21
g6
NtRp292
(dp293
g11
g77
sg25
(lp294
I3
asg14
(lp295
g261
ag262
aVF
aS'G'
asg17
Nsbsg64
Vmachine
p296
ssbag1
(g5
g6
NtRp297
(dp298
g9
S'2015-06-29_17-25-02'
p299
sg11
Vuse
p300
sg13
Nsg14
(lp301
VCm
p302
aVE-
p303
aVF
aVG
aVC
asg17
(dp304
g19
(lp305
g1
(g21
g6
NtRp306
(dp307
g11
g77
sg25
(lp308
I4
asg14
(lp309
VCm
p310
aVEb
p311
aVF
aVG
aS'C'
asg17
Nsbag1
(g21
g6
NtRp312
(dp313
g11
g77
sg25
g308
sg14
(lp314
g310
ag311
aVF
aVG
aS'F'
asg17
Nsbag1
(g21
g6
NtRp315
(dp316
g11
g77
sg25
g308
sg14
(lp317
g310
ag311
aVF
aVG
ag272
asg17
Nsbag1
(g21
g6
NtRp318
(dp319
g11
g77
sg25
g308
sg14
(lp320
g310
ag311
aVF
aVG
ag122
asg17
Nsbag1
(g21
g6
NtRp321
(dp322
g11
g77
sg25
g308
sg14
(lp323
g310
ag311
aVF
aVG
ag81
asg17
Nsbag1
(g21
g6
NtRp324
(dp325
g11
g131
sg25
(lp326
I2
asg14
(lp327
g310
ag311
ag220
aVG
asg17
(dp328
g136
g137
sg138
I1
ssbag1
(g21
g6
NtRp329
(dp330
g11
g131
sg25
(lp331
I2
asg14
(lp332
g310
ag311
ag122
aVG
asg17
(dp333
g136
g137
sg138
I2
ssbag1
(g21
g6
NtRp334
(dp335
g11
g131
sg25
(lp336
I2
asg14
(lp337
g310
ag311
aS'F7'
p338
aVG
asg17
(dp339
g136
g150
sg138
I30
ssbag1
(g21
g6
NtRp340
(dp341
g11
g131
sg25
(lp342
I2
asg14
(lp343
g310
ag311
aS'F/A'
p344
aVG
asg17
(dp345
g136
g150
sg138
I18
ssbasg59
g1
(g21
g6
NtRp346
(dp347
g11
g77
sg25
(lp348
I4
asg14
(lp349
g310
ag311
aVF
aVG
aS'C'
asg17
Nsbsg64
Vmachine
p350
ssbag1
(g5
g6
NtRp351
(dp352
g9
S'2015-06-29_17-25-07'
p353
sg11
Vuse
p354
sg13
Nsg14
(lp355
VCm
p356
aVE-
p357
aVF
aVE/B
p358
aVB
aVE-/B-
p359
asg17
(dp360
g19
(lp361
g1
(g21
g6
NtRp362
(dp363
g11
g77
sg25
(lp364
I5
asg14
(lp365
VCm
p366
aVEb
p367
aVF
aVG
aVC
aS'F'
asg17
Nsbag1
(g21
g6
NtRp368
(dp369
g11
g77
sg25
g364
sg14
(lp370
g366
ag367
aVF
aVG
aVC
aS'G'
asg17
Nsbag1
(g21
g6
NtRp371
(dp372
g11
g77
sg25
g364
sg14
(lp373
g366
ag367
aVF
aVG
aVC
ag272
asg17
Nsbag1
(g21
g6
NtRp374
(dp375
g11
g77
sg25
g364
sg14
(lp376
g366
ag367
aVF
aVG
aVC
aS'C'
asg17
Nsbag1
(g21
g6
NtRp377
(dp378
g11
g77
sg25
g364
sg14
(lp379
g366
ag367
aVF
aVG
aVC
ag81
asg17
Nsbag1
(g21
g6
NtRp380
(dp381
g11
g131
sg25
(lp382
I3
asg14
(lp383
g366
ag367
aVF
aS'C'
aVC
asg17
(dp384
g136
g137
sg138
I1
ssbag1
(g21
g6
NtRp385
(dp386
g11
g131
sg25
(lp387
I3
asg14
(lp388
g366
ag367
aVF
aS'F'
aVC
asg17
(dp389
g136
g137
sg138
I2
ssbag1
(g21
g6
NtRp390
(dp391
g11
g131
sg25
(lp392
I3
asg14
(lp393
g366
ag367
aVF
ag143
aVC
asg17
(dp394
g136
g150
sg138
I39
ssbag1
(g21
g6
NtRp395
(dp396
g11
g131
sg25
(lp397
I3
asg14
(lp398
g366
ag367
aVF
aS'Dm7'
p399
aVC
asg17
(dp400
g136
g150
sg138
I18
ssbasg59
g1
(g21
g6
NtRp401
(dp402
g11
S'sub_ripple'
p403
sg25
(lp404
I3
aI4
aI5
asg14
(lp405
g366
ag367
aVF
aS'E/B'
p406
aS'B'
aS'Eb/Bb'
p407
asg17
(dp408
g136
g150
sg138
I44
ssbsg64
Vmachine
p409
ssbag1
(g5
g6
NtRp410
(dp411
g9
S'2015-06-29_17-25-11'
p412
sg11
S'play'
p413
sg13
Nsg14
(lp414
VCm
p415
aVE-
p416
aVF
aVE/B
p417
aVB
aVE-/B-
p418
asg17
(dp419
g64
Vuser
p420
ssbag1
(g5
g6
NtRp421
(dp422
g9
S'2015-06-29_17-25-18'
p423
sg11
Vuse
p424
sg13
Nsg14
(lp425
VCm
p426
aVE-
p427
aVF
aVE/B
p428
aVB
aVE-/B-
p429
aVD7
p430
asg17
(dp431
g19
(lp432
g1
(g21
g6
NtRp433
(dp434
g11
g77
sg25
(lp435
I6
asg14
(lp436
VCm
p437
aVEb
p438
aVF
aVE/B
p439
aVB
aVEb/Bb
p440
aS'G'
asg17
Nsbag1
(g21
g6
NtRp441
(dp442
g11
g77
sg25
g435
sg14
(lp443
g437
ag438
aVF
ag439
aVB
ag440
aS'D7'
p444
asg17
Nsbag1
(g21
g6
NtRp445
(dp446
g11
g77
sg25
g435
sg14
(lp447
g437
ag438
aVF
ag439
aVB
ag440
ag407
asg17
Nsbag1
(g21
g6
NtRp448
(dp449
g11
g77
sg25
g435
sg14
(lp450
g437
ag438
aVF
ag439
aVB
ag440
ag290
asg17
Nsbag1
(g21
g6
NtRp451
(dp452
g11
g77
sg25
g435
sg14
(lp453
g437
ag438
aVF
ag439
aVB
ag440
aS'Dm'
p454
asg17
Nsbag1
(g21
g6
NtRp455
(dp456
g11
g131
sg25
(lp457
I4
asg14
(lp458
g437
ag438
aVF
ag439
aS'F#dim'
p459
ag440
asg17
(dp460
g136
g137
sg138
I1
ssbag1
(g21
g6
NtRp461
(dp462
g11
g131
sg25
(lp463
I4
asg14
(lp464
g437
ag438
aVF
ag439
aS'Am'
p465
ag440
asg17
(dp466
g136
g137
sg138
I2
ssbag1
(g21
g6
NtRp467
(dp468
g11
g131
sg25
(lp469
I4
asg14
(lp470
g437
ag438
aVF
ag439
aS'F#o7/Eb'
p471
ag440
asg17
(dp472
g136
g150
sg138
I5
ssbag1
(g21
g6
NtRp473
(dp474
g11
g131
sg25
(lp475
I4
asg14
(lp476
g437
ag438
aVF
ag439
ag231
ag440
asg17
(dp477
g136
g150
sg138
I14
ssbasg59
g1
(g21
g6
NtRp478
(dp479
g11
g77
sg25
(lp480
I6
asg14
(lp481
g437
ag438
aVF
ag439
aVB
ag440
ag444
asg17
Nsbsg64
Vmachine
p482
ssbag1
(g5
g6
NtRp483
(dp484
g9
S'2015-06-29_17-25-21'
p485
sg11
Vuse
p486
sg13
Nsg14
(lp487
VCm
p488
aVE-
p489
aVF
aVE/B
p490
aVB
aVE-/B-
p491
aVD7
p492
aVG7
p493
asg17
(dp494
g19
(lp495
g1
(g21
g6
NtRp496
(dp497
g11
g77
sg25
(lp498
I7
asg14
(lp499
VCm
p500
aVEb
p501
aVF
aVE/B
p502
aVB
aVEb/Bb
p503
aVD7
p504
aS'G7'
p505
asg17
Nsbag1
(g21
g6
NtRp506
(dp507
g11
g77
sg25
g498
sg14
(lp508
g500
ag501
aVF
ag502
aVB
ag503
ag504
ag454
asg17
Nsbag1
(g21
g6
NtRp509
(dp510
g11
g77
sg25
g498
sg14
(lp511
g500
ag501
aVF
ag502
aVB
ag503
ag504
aS'Gsus4'
p512
asg17
Nsbag1
(g21
g6
NtRp513
(dp514
g11
g77
sg25
g498
sg14
(lp515
g500
ag501
aVF
ag502
aVB
ag503
ag504
aS'F'
asg17
Nsbag1
(g21
g6
NtRp516
(dp517
g11
g77
sg25
g498
sg14
(lp518
g500
ag501
aVF
ag502
aVB
ag503
ag504
aS'G'
asg17
Nsbag1
(g21
g6
NtRp519
(dp520
g11
g131
sg25
(lp521
I5
asg14
(lp522
g500
ag501
aVF
ag502
aVB
aS'Eb7'
p523
ag504
asg17
(dp524
g136
g137
sg138
I0
ssbag1
(g21
g6
NtRp525
(dp526
g11
g131
sg25
(lp527
I5
asg14
(lp528
g500
ag501
aVF
ag502
aVB
aS'A7'
p529
ag504
asg17
(dp530
g136
g137
sg138
I2
ssbag1
(g21
g6
NtRp531
(dp532
g11
g131
sg25
(lp533
I5
asg14
(lp534
g500
ag501
aVF
ag502
aVB
aS'G11'
p535
ag504
asg17
(dp536
g136
g150
sg138
I103
ssbag1
(g21
g6
NtRp537
(dp538
g11
g131
sg25
(lp539
I5
asg14
(lp540
g500
ag501
aVF
ag502
aVB
aS'Em7/G'
p541
ag504
asg17
(dp542
g136
g150
sg138
I46
ssbasg59
g1
(g21
g6
NtRp543
(dp544
g11
g77
sg25
(lp545
I7
asg14
(lp546
g500
ag501
aVF
ag502
aVB
ag503
ag504
ag505
asg17
Nsbsg64
Vmachine
p547
ssbag1
(g5
g6
NtRp548
(dp549
g9
S'2015-06-29_17-25-24'
p550
sg11
Vuse
p551
sg13
Nsg14
(lp552
VCm
p553
aVE-
p554
aVF
aVE/B
p555
aVB
aVE-/B-
p556
aVD7
p557
aVG7
p558
aVCm
p559
asg17
(dp560
g19
(lp561
g1
(g21
g6
NtRp562
(dp563
g11
g77
sg25
(lp564
I8
asg14
(lp565
VCm
p566
aVEb
p567
aVF
aVE/B
p568
aVB
aVEb/Bb
p569
aVD7
p570
aVG7
p571
aS'C'
asg17
Nsbag1
(g21
g6
NtRp572
(dp573
g11
g77
sg25
g564
sg14
(lp574
g566
ag567
aVF
ag568
aVB
ag569
ag570
ag571
ag122
asg17
Nsbag1
(g21
g6
NtRp575
(dp576
g11
g77
sg25
g564
sg14
(lp577
g566
ag567
aVF
ag568
aVB
ag569
ag570
ag571
ag338
asg17
Nsbag1
(g21
g6
NtRp578
(dp579
g11
g77
sg25
g564
sg14
(lp580
g566
ag567
aVF
ag568
aVB
ag569
ag570
ag571
ag272
asg17
Nsbag1
(g21
g6
NtRp581
(dp582
g11
g77
sg25
g564
sg14
(lp583
g566
ag567
aVF
ag568
aVB
ag569
ag570
ag571
aS'F'
asg17
Nsbag1
(g21
g6
NtRp584
(dp585
g11
g131
sg25
(lp586
I6
asg14
(lp587
g566
ag567
aVF
ag568
aVB
ag569
ag444
ag571
asg17
(dp588
g136
g137
sg138
I0
ssbag1
(g21
g6
NtRp589
(dp590
g11
g131
sg25
(lp591
I6
asg14
(lp592
g566
ag567
aVF
ag568
aVB
ag569
aS'Ab7'
p593
ag571
asg17
(dp594
g136
g137
sg138
I2
ssbag1
(g21
g6
NtRp595
(dp596
g11
g131
sg25
(lp597
I6
asg14
(lp598
g566
ag567
aVF
ag568
aVB
ag569
aS'D'
ag571
asg17
(dp599
g136
g150
sg138
I98
ssbasg59
g1
(g21
g6
NtRp600
(dp601
g11
g77
sg25
(lp602
I8
asg14
(lp603
g566
ag567
aVF
ag568
aVB
ag569
ag570
ag571
ag122
asg17
Nsbsg64
Vmachine
p604
ssbag1
(g5
g6
NtRp605
(dp606
g9
S'2015-06-29_17-25-26'
p607
sg11
g413
sg13
Nsg14
(lp608
VCm
p609
aVE-
p610
aVF
aVE/B
p611
aVB
aVE-/B-
p612
aVD7
p613
aVG7
p614
aVCm
p615
asg17
(dp616
g64
Vuser
p617
ssbag1
(g5
g6
NtRp618
(dp619
g9
S'2015-06-29_17-25-44'
p620
sg11
g413
sg13
Nsg14
(lp621
VCm
p622
aVGm
p623
aVF
aVE/B
p624
aVB
aVE-/B-
p625
aVD7
p626
aVG7
p627
aVCm
p628
asg17
(dp629
g59
g1
(g21
g6
NtRp630
(dp631
g11
g403
sg25
(lp632
I1
asg14
(lp633
VCm
p634
ag290
aVF
aVE/B
p635
aVB
aVEb/Bb
p636
aVD7
p637
aVG7
p638
aVCm
p639
asg17
(dp640
g136
g150
sg138
I3
ssbsg64
Vmachine
p641
ssbag1
(g5
g6
NtRp642
(dp643
g9
S'2015-06-29_17-25-51'
p644
sg11
Vuse
p645
sg13
Nsg14
(lp646
VCm
p647
aVGm
p648
aVF
aVE/B
p649
aVB
aVE-/B-
p650
aVD7
p651
aVG7
p652
aVCm
p653
asg17
(dp654
g19
(lp655
g1
(g21
g6
NtRp656
(dp657
g11
g131
sg25
(lp658
I0
aI2
asg14
(lp659
g225
aVEb
p660
aS'Bb/D'
p661
ag635
aVB
ag636
ag637
ag638
ag639
asg17
(dp662
g136
g137
sg138
(lp663
I0
assbag1
(g21
g6
NtRp664
(dp665
g11
g131
sg25
(lp666
I0
aI2
asg14
(lp667
g231
ag660
aS'Dm9'
p668
ag635
aVB
ag636
ag637
ag638
ag639
asg17
(dp669
g136
g137
sg138
(lp670
I1
assbag1
(g21
g6
NtRp671
(dp672
g11
g131
sg25
(lp673
I0
aI2
asg14
(lp674
g92
ag660
ag338
ag635
aVB
ag636
ag637
ag638
ag639
asg17
(dp675
g136
g150
sg138
(lp676
I108
assbag1
(g21
g6
NtRp677
(dp678
g11
g131
sg25
(lp679
I0
aI2
asg14
(lp680
g155
ag660
ag344
ag635
aVB
ag636
ag637
ag638
ag639
asg17
(dp681
g136
g150
sg138
(lp682
I117
assbasg59
g630
sg64
Vmachine
p683
ssbag1
(g5
g6
NtRp684
(dp685
g9
S'2015-06-29_17-25-55'
p686
sg11
Vedit
p687
sg13
Nsg14
(lp688
VCm
p689
aVGm
p690
aVF
aVE/B
p691
aVB
aVE-/B-
p692
aVD7
p693
aVG7
p694
aVCm
p695
asg17
(dp696
g64
Vuser
p697
ssbag1
(g5
g6
NtRp698
(dp699
g9
S'2015-06-29_17-25-58'
p700
sg11
g413
sg13
Nsg14
(lp701
VCm
p702
aVGm
p703
aVF
aVBm/F#
p704
aVF#o7
p705
aVE-/B-
p706
aVD7
p707
aVG7
p708
aVCm
p709
asg17
(dp710
g59
g1
(g21
g6
NtRp711
(dp712
g11
g403
sg25
(lp713
I2
aI3
aI4
asg14
(lp714
VCm
p715
aVGm
p716
aS'F'
aS'Bm/F#'
p717
aS'F#o7'
p718
aVEb/Bb
p719
aVD7
p720
aVG7
p721
aVCm
p722
asg17
(dp723
g136
g137
sg138
I0
ssbsg64
Vmachine
p724
ssbag1
(g5
g6
NtRp725
(dp726
g9
S'2015-06-29_17-26-10'
p727
sg11
g413
sg13
Nsg14
(lp728
VCm
p729
aVGm
p730
aVF
aVDm7/F
p731
aVC
aVE-/B-
p732
aVD7
p733
aVG7
p734
aVCm
p735
asg17
(dp736
g59
g1
(g21
g6
NtRp737
(dp738
g11
g403
sg25
(lp739
I2
aI3
aI4
asg14
(lp740
g715
ag716
aS'F'
aS'Dm7/F'
p741
aS'C'
ag719
ag720
ag721
ag722
asg17
(dp742
g136
g137
sg138
I1
ssbsg64
Vmachine
p743
ssbag1
(g5
g6
NtRp744
(dp745
g9
S'2015-06-29_17-26-18'
p746
sg11
g413
sg13
Nsg14
(lp747
VCm
p748
aVGm
p749
aVA7
p750
aVE/B
p751
aVF#dim
p752
aVE-/B-
p753
aVD7
p754
aVG7
p755
aVCm
p756
asg17
(dp757
g59
g1
(g21
g6
NtRp758
(dp759
g11
g131
sg25
(lp760
I2
aI4
asg14
(lp761
g715
ag716
ag529
aVE/B
p762
ag459
ag719
ag720
ag721
ag722
asg17
(dp763
g136
g137
sg138
(lp764
I1
assbsg64
Vmachine
p765
ssbag1
(g5
g6
NtRp766
(dp767
g9
S'2015-06-29_17-26-25'
p768
sg11
Vuse
p769
sg13
Nsg14
(lp770
VCm
p771
aVGm
p772
aVA7
p773
aVE/B
p774
aVF#dim
p775
aVE-/B-
p776
aVD7
p777
aVG7
p778
aVCm
p779
asg17
(dp780
g19
(lp781
g1
(g21
g6
NtRp782
(dp783
g11
g131
sg25
(lp784
I2
aI4
asg14
(lp785
g715
ag716
ag529
ag762
ag459
ag719
ag720
ag721
ag722
asg17
(dp786
g136
g137
sg138
(lp787
I1
assbag1
(g21
g6
NtRp788
(dp789
g11
g131
sg25
(lp790
I2
aI4
asg14
(lp791
g715
ag716
aS'C'
ag762
ag465
ag719
ag720
ag721
ag722
asg17
(dp792
g136
g137
sg138
(lp793
I2
assbag1
(g21
g6
NtRp794
(dp795
g11
g131
sg25
(lp796
I2
aI4
asg14
(lp797
g715
ag716
ag338
ag762
ag471
ag719
ag720
ag721
ag722
asg17
(dp798
g136
g150
sg138
(lp799
I5
assbag1
(g21
g6
NtRp800
(dp801
g11
g131
sg25
(lp802
I2
aI4
asg14
(lp803
g715
ag716
ag344
ag762
ag231
ag719
ag720
ag721
ag722
asg17
(dp804
g136
g150
sg138
(lp805
I14
assbasg59
g758
sg64
Vmachine
p806
ssbag1
(g5
g6
NtRp807
(dp808
g9
S'2015-06-29_17-26-34'
p809
sg11
g413
sg13
Nsg14
(lp810
VCm
p811
aVGm
p812
aVA7
p813
aVE/B
p814
aVF#dim
p815
aVE-/B-
p816
aVD7
p817
aVD-
p818
aVCm
p819
asg17
(dp820
g59
g1
(g21
g6
NtRp821
(dp822
g11
g403
sg25
(lp823
I7
asg14
(lp824
VCm
p825
aVGm
p826
aVA7
p827
aVE/B
p828
aVF#dim
p829
aVEb/Bb
p830
aVD7
p831
aS'Db'
p832
aVCm
p833
asg17
(dp834
g136
g150
sg138
I98
ssbsg64
Vmachine
p835
ssbag1
(g5
g6
NtRp836
(dp837
g9
S'2015-06-29_17-26-43'
p838
sg11
g413
sg13
Nsg14
(lp839
VCm
p840
aVGm
p841
aVA7
p842
aVE/B
p843
aVF#dim
p844
aVE-/B-
p845
aVCm
p846
aVD-
p847
aVCm/Eb
p848
asg17
(dp849
g59
g1
(g21
g6
NtRp850
(dp851
g11
g403
sg25
(lp852
I6
aI7
aI8
asg14
(lp853
g825
ag826
ag827
ag828
ag829
ag830
ag122
ag832
ag225
asg17
g834
sbsg64
Vmachine
p854
ssbag1
(g5
g6
NtRp855
(dp856
g9
S'2015-06-29_17-26-51'
p857
sg11
Vuse
p858
sg13
Nsg14
(lp859
VCm
p860
aVGm
p861
aVA7
p862
aVE/B
p863
aVF#dim
p864
aVE-/B-
p865
aVD7
p866
aVD-
p867
aVCm
p868
asg17
(dp869
g19
(lp870
g1
(g21
g6
NtRp871
(dp872
g11
g131
sg25
(lp873
I6
aI8
asg14
(lp874
g825
ag826
ag827
ag828
ag829
ag830
ag444
aVG7
p875
aS'C'
asg17
(dp876
g136
g137
sg138
(lp877
I0
assbag1
(g21
g6
NtRp878
(dp879
g11
g131
sg25
(lp880
I6
aI8
asg14
(lp881
g825
ag826
ag827
ag828
ag829
ag830
ag593
ag875
ag338
asg17
(dp882
g136
g137
sg138
(lp883
I2
assbag1
(g21
g6
NtRp884
(dp885
g11
g131
sg25
(lp886
I6
aI8
asg14
(lp887
g825
ag826
ag827
ag828
ag829
ag830
aS'D'
ag875
ag92
asg17
(dp888
g136
g150
sg138
(lp889
I104
assbag1
(g21
g6
NtRp890
(dp891
g11
g131
sg25
(lp892
I6
aI8
asg14
(lp893
g825
ag826
ag827
ag828
ag829
ag830
ag593
ag875
ag155
asg17
(dp894
g136
g150
sg138
(lp895
I57
assbasg59
g821
sg64
Vmachine
p896
ssbag1
(g5
g6
NtRp897
(dp898
g9
S'2015-06-29_17-26-56'
p899
sg11
S'save'
p900
sg13
Nsg14
(lp901
VCm
p902
aVGm
p903
aVA7
p904
aVE/B
p905
aVF#dim
p906
aVE-/B-
p907
aVD7
p908
aVD-
p909
aVCm
p910
asg17
NsbatRp911
(dp912
S'experiment_type_strs'
p913
(lp914
S'manual'
p915
aS'baseline_singleton'
p916
aS'ripple'
p917
asS'id'
p918
S'2015-06-29_17-23-36'
p919
sS'snapshot_count'
p920
I15
sS'_experiment_type'
p921
I2
sb.