(dp1
Vvii/o4/3
p2
S'B/o7/F'
p3
sVii7
p4
S'Dm7'
p5
sVvi6/5
p6
S'Am7/C'
p7
sVV/V
p8
S'D'
sVVI6
p9
S'A/C#'
p10
sVviio6
p11
S'Bdim/D'
p12
sVviio7
p13
S'Bo7'
p14
sVvii/o7
p15
S'B/o7'
p16
sVviio6/VII
p17
S'A#dim/C#'
p18
sVviio4/3
p19
S'Bo7/F'
p20
sVviio6/5
p21
S'Bo7/D'
p22
sVviio6/4
p23
S'Bdim/F'
p24
sVV4/3/vi
p25
S'E7/B'
p26
sVV6/5/iv
p27
S'C7/E'
p28
sVV6/5/vi
p29
S'E7/G#'
p30
sVV2/iv
p31
S'C7/B-'
p32
sVviio6/V
p33
S'F#dim/A'
p34
sVviio7/V
p35
S'F#o7'
p36
sVvii/o7/V
p37
S'F#/o7'
p38
sVV/ii
p39
S'A'
sVVII
p40
S'B'
sVvi6/V
p41
S'Em/G'
p42
sVi6
p43
S'Cm/E-'
p44
sViio6
p45
S'Ddim/F'
p46
sVvi/o7
p47
S'A/o7'
p48
sVIV6
p49
S'F/A'
p50
sVIV7
p51
S'Fmaj7'
p52
sVIV2
p53
S'Fmaj7/E'
p54
sVvio6
p55
S'Adim/C'
p56
sVii/o2
p57
S'D/o7/C'
p58
sVV7/vi
p59
S'E7'
p60
sVIV6/5
p61
S'Fmaj7/A'
p62
sVV6/5/III
p63
S'B7/D#'
p64
sVV/vi
p65
S'E'
sVbVII7[maj7]
p66
S'Chord Symbol Cannot Be Identified'
p67
sVIII6
p68
S'E/G#'
p69
sVV4/3
p70
S'G7/D'
p71
sVV2/IV
p72
S'C7/B-'
p73
sVV6/III
p74
S'B/D#'
p75
sVV4/3/V
p76
S'D7/A'
p77
sViv6
p78
S'Fm/A-'
p79
sVV7/V
p80
S'D7'
p81
sVii6
p82
S'Dm/F'
p83
sVii2
p84
S'Dm7/C'
p85
sVI6/4
p86
S'C/G'
p87
sVVII6
p88
S'B/D#'
p89
sVV6/V
p90
S'D/F#'
p91
sVii4/3
p92
S'Dm7/A'
p93
sVV7/IV
p94
S'C7'
p95
sVii7/V
p96
S'Am7'
p97
sVviio7/IV
p98
S'Eo7'
p99
sVV6/vi
p100
S'E/G#'
p101
sVii/o4/3
p102
S'D/o7/A-'
p103
sVii/o6/5
p104
S'D/o7/F'
p105
sVvi7
p106
S'Am7'
p107
sVV
S'G'
sViio
p108
S'Ddim'
p109
sViii
p110
S'Em'
p111
sVV6/5
p112
S'G7/B'
p113
sVV6/4
p114
S'G/D'
p115
sVviio
p116
S'Bdim'
p117
sVv
S'Gm'
p118
sVii6/5
p119
S'Dm7/F'
p120
sVvi
p121
S'Am'
p122
sViv
p123
S'Fm'
p124
sVii
p125
S'Dm'
p126
sVV6/4/ii
p127
S'A/E'
p128
sVi6/4
p129
S'Cm/G'
p130
sVvii/o2
p131
S'B/o7/A'
p132
sVI6
p133
S'C/E'
p134
sVV2
p135
S'G7/F'
p136
sVii/o7
p137
S'D/o7'
p138
sVV6
p139
S'G/B'
p140
sVV7
p141
S'G7'
p142
sVIt6
p143
g143
sVIII
p144
S'E'
sVI
S'C'
sVVI
p145
S'A'
sVIV
p146
S'F'
sVv2
p147
S'Gm7/F'
p148
sViv7
p149
S'FmM7'
p150
sVv6
p151
S'Gm/B-'
p152
sVv7
p153
S'Gm7'
p154
sVviio7/iv
p155
S'Eo7'
p156
sVV6/iv
p157
S'C/E'
p158
sVV6/5/V
p159
S'D7/F#'
p160
sVi
S'Cm'
p161
sVIII+6/5
p162
S'E7+/G#'
p163
sViii6
p164
S'Em/G'
p165
sVviio6/III
p166
S'D#dim/F#'
p167
sVV6/ii
p168
S'A/C#'
p169
sVviio6/IV
p170
S'Edim/G'
p171
s.