(dp1
S'syms'
p2
(lp3
S'E-m'
p4
aS'G#o7'
p5
aS'G7'
p6
aS'Bm'
p7
aS'G9'
p8
aS'Fm/C'
p9
aS'B-7'
p10
aS'G-'
p11
aS'D'
aS'Fmaj7'
p12
aS'B-/F'
p13
aS'F#m7'
p14
aS'B-/D'
p15
aS'F#o7/C'
p16
aS'CmM7'
p17
aS'E-7'
p18
aS'E7'
p19
aS'CmM9'
p20
aS'E-/B-'
p21
aS'B-'
p22
aS'D/F#'
p23
aS'B7'
p24
aS'B-m7'
p25
aS'Gm'
p26
aS'CmM7/B'
p27
aS'Gsus4'
p28
aS'Dm7'
p29
aS'E/G#'
p30
aS'E-'
p31
aS'FmM7/A-'
p32
aS'A/C#'
p33
aS'C/E'
p34
aS'C/G'
p35
aS'Dm7/F'
p36
aS'Dm7/A'
p37
aS'A-7'
p38
aS'C'
aS'G'
aS'F#o7/E-'
p39
aS'G+11'
p40
aS'G7/F'
p41
aS'G7/D'
p42
aS'G7/B'
p43
aS'Em'
p44
aS'F#dim'
p45
aS'E7/G#'
p46
aS'Em7'
p47
aS'Cmaj7'
p48
aS'Gm7/B-'
p49
aS'Em/G'
p50
aS'Dm9'
p51
aS'Em/B'
p52
aS'FM9'
p53
aS'Am/C'
p54
aS'Am/E'
p55
aS'C7'
p56
aS'Fm'
p57
aS'B'
aS'F'
aS'Em7/G'
p58
aS'E-/G'
p59
aS'Gm7'
p60
aS'C#dim'
p61
aS'G11'
p62
aS'Cm'
p63
aS'F7'
p64
aS'A-/C'
p65
aS'G/D'
p66
aS'Gm/B-'
p67
aS'G/B'
p68
aS'Am9'
p69
aS'F#'
p70
aS'Bm7'
p71
aS'Am7'
p72
aS'Bm/F#'
p73
aS'Cm/E-'
p74
aS'Ddim'
p75
aS'Fmaj7/C'
p76
aS'Fmaj7/A'
p77
aS'E/B'
p78
aS'Dm'
p79
aS'A-'
p80
aS'A7'
p81
aS'B--7'
p82
aS'A9'
p83
aS'A'
aS'Bo7/A-'
p84
aS'E'
aS'F#o7'
p85
aS'FmM7'
p86
aS'Gm/D'
p87
aS'C7/B-'
p88
aS'D-'
p89
aS'Am'
p90
aS'F/A'
p91
aS'F/C'
p92
aS'D7'
p93
asS'seqs'
p94
(lp95
(lp96
S'C'
aS'F'
ag72
aS'C'
aS'F'
ag72
aS'C'
aS'F'
ag72
aS'C'
aS'F'
ag72
aS'C'
aS'F'
ag72
aS'C'
aS'F'
ag72
aS'C'
aS'F'
ag72
aS'C'
aS'F'
ag72
aS'C'
aS'F'
ag72
aS'C'
aS'F'
ag72
aS'C'
aa(lp97
S'G'
aS'C'
ag29
ag90
aS'C'
ag29
aS'F'
ag90
aS'C'
ag29
ag90
aS'C'
ag29
aS'F'
ag90
aS'C'
ag29
ag90
aS'C'
ag29
aS'F'
aS'E'
ag90
aS'C'
ag29
aS'C'
ag29
ag90
ag29
ag90
ag93
ag6
aS'C'
ag29
ag90
aS'C'
ag29
aS'F'
aS'E'
ag90
aS'C'
aa(lp98
S'C'
ag52
ag90
aS'F'
ag55
ag79
aS'C'
ag52
ag90
aS'F'
ag22
aS'F'
ag22
aS'C'
ag52
aS'F'
ag55
ag79
aS'C'
ag52
ag90
aS'F'
ag22
ag90
aS'F'
aS'C'
ag52
ag90
aS'F'
ag55
ag79
aS'C'
ag52
aS'F'
ag22
ag90
aS'F'
ag90
aS'C'
ag22
aS'C'
aS'G'
aS'C'
aS'G'
aS'C'
ag22
aS'C'
aS'G'
aS'C'
aS'G'
aS'F'
aS'C'
aS'G'
aS'D'
aS'A'
aS'F'
aS'C'
aS'G'
aS'D'
aS'C'
ag52
ag90
aS'F'
ag55
ag79
aS'C'
ag52
ag90
aS'F'
ag22
ag90
aS'F'
ag90
aa(lp99
g28
aS'C'
aS'F'
aS'C'
ag22
aS'C'
aS'F'
aS'C'
ag22
aS'C'
aS'F'
aS'G'
aS'C'
aS'F'
aS'G'
aS'C'
aS'F'
aS'C'
ag22
aS'C'
aS'F'
aS'C'
ag22
aS'C'
aS'F'
aS'G'
aS'C'
aS'F'
aS'C'
ag44
ag90
ag44
ag90
ag64
aS'G'
aS'C'
aS'F'
aS'C'
ag22
aS'C'
aS'F'
aS'C'
ag22
aS'C'
aS'F'
aS'G'
aS'C'
aS'F'
aS'C'
aS'F'
aS'G'
aS'C'
aS'F'
aS'C'
ag90
ag44
ag90
ag64
aS'G'
aS'C'
aS'F'
aS'C'
ag22
aS'C'
aS'F'
aS'C'
ag22
aS'C'
aS'F'
aS'G'
aS'C'
aS'F'
aS'F'
aS'C'
aS'F'
aS'F'
aS'C'
aS'F'
aa(lp100
S'C'
ag52
ag90
ag35
aS'F'
ag55
ag79
aS'G'
aS'C'
ag52
ag90
aS'F'
ag55
ag79
aS'G'
aS'C'
ag52
ag90
ag35
aS'F'
ag55
ag79
aS'G'
aS'C'
ag52
ag90
ag35
aS'F'
ag55
ag79
aS'G'
aS'C'
aS'F'
aS'C'
ag52
ag90
aS'F'
ag55
ag79
aS'G'
aS'C'
ag52
ag90
aS'F'
ag55
ag79
aS'G'
aS'C'
ag52
ag90
aS'F'
ag55
ag79
aS'G'
aS'C'
ag52
ag90
ag35
aS'F'
ag55
ag79
aS'G'
aS'C'
aS'F'
aS'C'
aS'G'
aa(lp101
g63
ag22
ag80
ag63
ag22
ag63
ag22
ag63
ag22
ag63
ag22
ag80
ag63
ag22
ag63
ag22
ag80
ag63
ag22
ag80
ag63
ag22
ag80
ag63
ag22
ag63
ag22
ag80
ag63
ag22
ag63
ag22
ag80
ag63
ag22
ag63
ag22
ag80
ag63
ag22
ag22
ag63
ag22
ag80
ag63
ag22
ag63
ag22
ag80
ag63
ag22
ag63
ag22
ag80
ag63
ag22
ag63
ag22
ag22
ag63
ag22
ag22
ag80
ag22
aa(lp102
S'C'
aS'F'
aS'G'
aS'C'
aS'F'
aS'G'
aS'C'
aa(lp103
S'C'
ag90
aS'F'
aS'G'
aS'C'
ag90
aS'F'
aS'G'
aS'C'
ag90
aS'F'
aS'G'
aS'C'
ag90
aS'F'
aS'G'
aS'C'
ag90
aS'F'
aS'G'
aS'C'
ag90
aS'F'
aS'G'
aS'C'
ag90
aS'F'
aS'G'
aS'C'
ag90
aS'F'
aS'G'
aS'C'
ag90
aS'F'
aS'G'
aS'C'
aS'F'
ag44
ag79
aS'G'
aS'C'
aS'F'
ag44
aS'D'
aS'G'
aS'C'
ag90
aS'F'
aS'G'
aS'C'
ag90
aS'F'
aS'G'
aS'C'
ag90
aS'F'
aS'G'
aS'C'
ag90
aS'F'
aS'G'
aS'C'
aS'F'
aS'C'
aS'F'
ag44
ag79
aS'G'
aS'C'
aS'F'
ag44
aS'D'
aS'G'
aS'C'
ag90
aS'F'
aS'G'
aS'C'
ag90
aS'F'
aS'G'
aS'C'
ag90
aS'F'
aS'G'
aS'C'
ag90
aS'F'
aS'G'
aS'C'
ag90
aS'F'
aS'G'
aS'C'
ag90
aS'F'
aS'G'
aa(lp104
S'C'
aS'F'
ag34
ag34
aS'F'
ag34
aS'F'
ag34
aS'G'
aS'F'
ag44
ag79
aS'C'
ag34
aS'C'
aS'F'
ag34
aS'F'
ag34
aS'F'
ag34
aS'F'
ag34
aS'G'
aS'F'
ag44
ag79
aS'C'
ag34
aS'G'
aS'C'
aS'F'
ag34
aS'F'
ag34
aS'F'
ag34
aS'F'
ag34
aS'G'
aS'F'
ag44
ag79
aS'C'
ag34
aS'C'
aS'F'
ag34
aS'F'
ag34
aS'F'
ag34
ag34
aS'G'
aS'F'
ag79
aS'C'
ag34
aS'G'
aS'F'
ag44
ag79
aS'C'
ag34
aS'G'
aS'F'
ag44
ag79
aS'C'
ag34
aS'G'
aS'F'
ag44
ag79
aS'C'
aS'F'
ag34
aa(lp105
S'C'
ag22
ag91
aS'C'
ag22
ag91
aS'C'
ag22
ag91
aS'C'
ag22
ag91
aS'G'
aS'F'
aS'G'
ag31
ag22
aS'C'
ag22
ag91
aS'C'
ag22
ag91
aS'C'
ag22
ag91
aS'C'
ag22
ag91
aS'G'
aS'F'
aS'G'
ag31
ag22
aS'C'
aS'G'
aS'F'
aS'G'
ag31
ag22
aS'C'
aS'G'
aS'F'
aS'G'
ag31
ag22
aa(lp106
S'C'
ag79
aS'G'
aS'C'
ag79
aS'G'
aS'E'
aS'A'
aS'D'
aS'G'
aS'C'
ag90
aS'F'
aS'G'
aS'C'
ag79
aS'G'
aS'C'
ag79
aS'G'
aS'E'
aS'A'
aS'D'
aS'G'
aS'C'
ag90
aS'F'
aS'G'
aS'C'
aS'G'
aS'C'
ag90
aS'F'
aS'G'
aS'C'
ag90
aS'F'
aS'G'
aa(lp107
S'F'
aS'C'
aS'F'
aS'C'
aS'F'
aS'C'
ag60
aS'F'
aS'C'
aS'F'
aS'C'
ag60
aS'F'
aS'C'
aS'F'
aS'C'
ag60
aS'F'
aS'C'
aS'C'
ag60
aS'F'
aS'C'
ag60
aS'F'
aS'C'
ag60
aS'F'
aS'C'
ag60
aS'F'
aS'F'
aS'C'
ag60
aS'F'
aS'C'
aS'F'
aS'C'
ag60
aS'F'
aS'C'
aS'F'
aS'C'
ag60
aS'F'
aS'C'
aS'F'
aS'C'
ag60
aS'F'
aS'C'
aS'C'
ag60
aS'F'
aS'C'
ag60
aS'F'
aS'C'
ag60
aS'F'
aS'C'
ag60
aS'F'
aS'C'
ag60
aS'F'
aS'F'
aS'C'
aS'F'
aS'C'
aS'F'
aS'C'
ag60
aS'F'
aS'C'
aS'F'
aS'C'
ag60
aS'F'
aS'C'
aS'F'
aS'C'
ag60
aS'F'
aS'C'
aS'F'
aS'C'
ag60
aS'F'
aS'C'
ag60
aS'F'
aS'C'
ag60
aS'F'
aS'C'
ag60
aS'F'
aS'C'
ag60
aS'F'
aS'C'
ag60
aS'F'
aS'C'
ag60
aS'F'
aS'C'
ag60
aS'F'
aS'C'
ag60
aS'F'
aS'C'
aS'F'
aS'C'
ag60
aS'F'
aS'C'
ag60
aS'F'
aS'C'
ag60
aS'F'
aS'C'
ag60
aS'F'
aS'C'
ag60
aS'F'
aa(lp108
S'F'
aS'G'
aS'C'
aS'F'
aS'G'
aS'C'
aS'F'
aS'G'
aS'C'
aS'F'
aS'G'
aS'C'
aS'F'
aS'F'
aS'G'
aS'C'
aS'F'
aS'G'
aS'C'
aS'F'
aS'F'
aS'G'
aS'C'
aS'F'
aS'G'
aS'C'
aS'F'
aS'G'
aS'C'
aS'F'
aS'G'
aS'C'
aS'F'
aS'F'
aS'G'
aS'C'
aS'F'
aS'G'
aS'C'
aS'F'
aS'F'
aS'G'
aS'C'
aS'F'
aS'G'
aS'C'
aS'F'
aa(lp109
S'C'
aS'G'
aS'C'
aS'G'
aS'C'
aS'G'
aS'C'
aS'C'
aS'G'
aS'C'
aS'G'
aS'C'
aS'G'
aS'C'
aS'F'
aS'C'
aS'F'
aS'D'
aS'F'
aS'G'
aS'C'
aS'G'
aS'C'
aS'G'
aS'C'
aS'F'
aS'G'
aS'C'
aS'C'
aS'G'
aS'C'
aS'G'
aS'C'
aS'G'
aS'C'
aS'F'
aS'C'
aS'F'
aS'D'
aS'F'
aS'G'
aS'C'
aS'G'
aS'C'
aS'G'
aS'C'
aS'G'
aS'C'
aS'C'
aS'G'
aS'C'
aS'G'
aS'C'
aS'G'
aS'C'
aS'C'
aa(lp110
S'C'
aS'F'
aS'G'
aS'C'
aS'F'
aS'C'
aS'F'
aS'G'
aS'C'
aS'F'
aS'G'
aS'C'
aS'F'
aS'G'
aS'C'
aS'F'
aS'C'
aS'F'
aS'G'
aS'C'
aS'F'
aS'G'
aS'C'
aS'F'
aS'G'
aS'C'
aS'F'
aS'C'
aS'F'
aS'G'
aS'C'
aS'F'
aS'G'
aS'C'
aS'F'
aS'G'
aS'C'
aS'F'
aS'C'
aS'F'
aS'G'
aS'C'
aS'F'
aS'G'
aS'C'
aS'F'
aS'G'
aS'C'
aS'F'
aS'C'
aS'F'
aS'G'
aS'C'
aS'F'
aS'G'
aS'C'
aS'F'
aS'G'
aS'C'
aS'F'
aS'C'
aS'F'
aS'G'
aS'C'
aS'F'
aS'G'
aa(lp111
S'C'
aS'F'
aS'C'
ag6
aS'C'
aS'C'
aS'F'
aS'C'
ag6
aS'C'
aS'C'
ag29
aS'G'
aS'C'
ag24
ag44
ag24
ag44
ag24
ag6
ag56
aS'F'
aS'C'
ag6
aS'C'
aS'C'
ag29
aS'G'
aS'C'
ag24
ag44
ag24
ag44
ag24
ag6
ag56
aS'F'
aS'C'
ag6
aS'C'
aa(lp112
g72
ag93
ag6
aS'C'
ag90
ag6
aS'Am'
p113
aS'D'
ag80
aS'G'
ag70
aS'G'
ag80
aS'G'
ag70
aS'G'
aS'F'
ag34
ag39
ag66
aS'C'
ag90
ag79
aS'C'
ag90
ag79
ag71
aS'C'
ag43
ag90
ag79
ag71
aS'G'
aS'C'
ag68
ag90
ag57
aS'C'
aS'C'
ag90
ag79
aS'C'
ag90
ag79
ag71
aS'C'
ag43
ag90
ag79
ag71
aS'G'
aS'C'
ag92
aS'C'
ag92
aS'C'
ag92
aS'C'
ag92
aS'C'
ag92
aS'C'
ag78
aS'B'
ag21
aS'G'
aS'C'
aS'G'
aS'C'
ag80
aS'G'
ag70
aS'G'
ag80
aS'G'
ag70
aS'G'
ag92
aS'C'
ag92
aS'C'
aS'F'
ag34
aS'D'
aS'G'
ag80
aS'G'
ag70
aS'G'
ag80
aS'G'
ag70
aS'G'
aS'C'
aS'G'
aS'C'
aS'G'
aS'C'
aS'G'
aS'C'
aS'G'
aS'C'
aS'G'
aS'C'
aS'G'
aS'C'
aS'G'
aS'C'
aS'G'
ag31
ag80
aS'F#'
p114
aS'B'
aS'B-'
p115
ag31
aS'G'
aS'C'
aS'G'
aS'C'
aS'F'
aS'C'
aS'G'
aS'C'
ag92
aS'B'
ag44
aS'G'
aS'G'
aS'C'
aS'G'
aS'G'
aS'C'
aS'F'
ag79
aS'G'
ag79
aS'G'
ag79
ag79
aS'G'
aS'C'
aS'C'
ag68
ag90
ag30
ag90
ag30
ag90
ag90
ag44
ag90
ag44
ag90
ag57
ag62
aS'C'
aS'C'
aa(lp116
S'C'
ag31
aS'F'
aS'C'
ag31
aS'F'
aS'C'
ag31
aS'F'
aS'C'
ag31
aS'F'
aS'C'
ag31
aS'F'
aS'C'
ag31
aS'F'
aS'C'
ag31
aS'F'
aS'C'
ag31
aS'F'
aS'C'
ag31
aS'F'
ag31
aS'C'
ag22
aS'C'
ag22
aS'C'
ag31
aS'F'
aS'C'
ag31
aS'F'
aS'C'
ag31
aS'F'
aS'C'
ag31
aS'F'
aS'C'
ag31
aS'F'
ag31
aS'C'
ag22
aS'C'
ag22
aa(lp117
S'G'
aS'C'
aS'F'
aS'G'
aS'C'
aS'F'
aS'F'
ag55
ag29
ag55
aS'C'
aS'F'
ag55
ag29
ag55
aS'C'
ag90
aS'F'
aS'G'
aS'C'
aS'G'
aS'C'
aS'G'
aS'C'
aS'F'
aS'G'
aS'C'
aS'F'
aS'G'
aS'F'
ag55
ag29
ag55
aS'C'
aS'F'
ag55
ag29
ag55
aS'C'
ag90
aS'F'
aS'G'
aS'C'
aS'G'
aS'C'
ag26
aS'C'
aS'F'
aS'G'
ag22
aS'C'
aS'F'
aS'G'
ag22
aS'G'
aS'C'
aS'F'
aS'G'
aS'C'
aS'F'
aS'G'
aS'F'
ag55
ag29
ag55
aS'C'
aS'F'
ag55
ag29
ag55
aS'C'
ag90
aS'F'
aS'G'
aS'C'
ag90
aS'F'
aS'G'
aS'C'
ag90
aS'F'
aS'G'
aS'C'
aS'F'
aS'G'
aS'C'
aS'F'
aS'G'
aS'C'
aS'F'
aS'G'
aS'C'
aS'F'
aS'G'
aS'C'
aa(lp118
g48
ag92
aS'Gsus4'
p119
aS'C'
aS'G'
aS'C'
ag92
ag119
ag48
ag92
ag119
ag48
ag92
ag119
aS'C'
aS'G'
aS'C'
ag92
ag119
ag48
ag92
ag119
aS'C'
aS'G'
aS'C'
aS'G'
aS'C'
aS'C'
aS'G'
aS'C'
ag92
ag92
aS'C'
ag92
ag119
aS'C'
ag48
ag92
ag119
aS'C'
aS'G'
aS'C'
ag92
ag119
ag48
ag92
ag119
ag48
ag92
ag119
aS'C'
aS'G'
aS'C'
ag92
ag119
ag48
ag92
ag119
aS'C'
aS'G'
aS'C'
aS'G'
aS'C'
aS'C'
aS'G'
aS'C'
ag92
ag92
aS'C'
ag92
ag119
aS'C'
ag48
ag92
ag119
aS'C'
aS'G'
aS'C'
ag92
ag119
ag48
ag92
ag119
ag48
ag92
ag119
aS'C'
aS'G'
aS'C'
ag92
ag119
ag48
ag92
ag119
aS'C'
aS'G'
aS'C'
aS'G'
aS'C'
aS'C'
aS'G'
aS'C'
ag92
ag92
aS'C'
ag92
ag119
aS'C'
aS'C'
aS'G'
aS'C'
aS'G'
aS'C'
aS'C'
aS'G'
aS'C'
ag92
ag92
aS'C'
ag92
ag119
aS'C'
aa(lp120
g92
aS'C'
ag92
aS'C'
aS'F'
ag22
aS'F'
ag48
ag79
aS'C'
aS'C'
aS'C'
aS'G'
aS'C'
aS'F'
aS'D'
aS'C'
aS'G'
aS'F'
ag73
ag85
ag35
ag81
aS'F'
ag5
aS'C'
aS'G'
aS'F'
ag73
ag85
ag35
ag81
aS'F'
ag84
ag92
aS'C'
ag92
aS'C'
aS'F'
ag22
aS'F'
ag48
ag79
aS'C'
aS'F'
aS'C'
aS'C'
aS'G'
aS'C'
aS'F'
aS'D'
aS'C'
aS'G'
aS'F'
ag73
ag85
ag35
ag81
aS'F'
ag5
aS'C'
aS'G'
aS'F'
ag73
ag85
ag35
ag72
aS'F'
aS'E'
ag90
ag92
aS'C'
ag92
aS'C'
aS'F'
ag22
aS'F'
ag48
ag79
aS'C'
aS'F'
aS'C'
aS'G'
aS'C'
aS'F'
aS'D'
aS'C'
aS'G'
aS'F'
ag73
ag85
ag35
ag72
aS'F'
ag5
aS'C'
aS'G'
aS'F'
ag73
ag85
ag35
ag72
aS'F'
aS'E'
ag90
ag89
ag35
aa(lp121
S'C'
aS'F'
aS'C'
aS'G'
aS'C'
aS'F'
aS'C'
aS'G'
aS'C'
aS'F'
aS'C'
aS'G'
aS'C'
aS'F'
aS'C'
aS'G'
aS'G'
aS'F'
aS'G'
aS'C'
aS'F'
aS'C'
aS'G'
aS'C'
aS'F'
aS'C'
aS'G'
aS'C'
aS'F'
aS'C'
aS'G'
aS'C'
aS'F'
aS'C'
aS'G'
aS'G'
aS'F'
aS'G'
aS'G'
aS'C'
aS'F'
aS'C'
aS'C'
aS'F'
aS'C'
aS'G'
aS'C'
aS'F'
aS'C'
aS'G'
aS'C'
aS'F'
aS'C'
aS'G'
aS'C'
aS'F'
aS'C'
aS'G'
aS'C'
aS'F'
aS'C'
aS'G'
aS'G'
aS'F'
aS'G'
aS'G'
aS'C'
aS'F'
aS'C'
aS'C'
aS'F'
aS'C'
aS'C'
aS'F'
aS'C'
aa(lp122
g119
ag63
ag80
ag22
ag80
ag31
ag63
ag80
ag119
ag63
ag80
ag22
ag119
ag63
ag80
ag22
ag119
ag80
ag22
ag119
ag80
ag31
ag63
ag80
ag119
ag63
ag80
ag22
ag119
ag63
ag80
ag22
ag119
ag119
ag63
ag80
ag22
ag80
ag31
ag63
ag80
ag119
ag63
ag80
ag22
ag119
ag63
ag80
ag22
ag63
ag80
ag22
ag63
ag80
ag22
ag80
aa(lp123
S'C'
ag22
aS'F'
aS'G'
aS'C'
ag22
aS'F'
aS'G'
aS'C'
ag79
ag17
ag80
ag25
aS'C'
ag22
aS'F'
aS'G'
aS'C'
ag22
aS'F'
aS'G'
aS'C'
ag79
ag17
ag80
ag25
aS'G'
aS'C'
ag29
aS'C'
ag29
aS'C'
aa(lp124
S'C'
aS'G'
aS'C'
aS'G'
aS'C'
aS'C'
aS'G'
aS'C'
aS'G'
aS'C'
aS'G'
aS'C'
aS'C'
aS'G'
ag90
aS'F'
aS'G'
aS'C'
aS'G'
aS'C'
aS'G'
aS'C'
aS'C'
aS'C'
aS'F'
aS'C'
aS'C'
aS'F'
ag90
aS'F'
aS'G'
aS'C'
aS'C'
aS'G'
aS'C'
aS'G'
aS'C'
aS'C'
aS'G'
aS'C'
aS'G'
aS'C'
aS'G'
aS'C'
aS'C'
aS'G'
ag90
aS'F'
aS'G'
aS'C'
aS'G'
aS'C'
aS'G'
aS'C'
aS'C'
aS'C'
aS'F'
aS'C'
aS'C'
aS'F'
ag90
aS'F'
aS'G'
aS'C'
aS'C'
aS'G'
aS'C'
aS'G'
aS'C'
aS'C'
aS'G'
aS'C'
aS'G'
aS'C'
aS'G'
aS'C'
aS'C'
aS'G'
ag90
aS'F'
aS'G'
aS'C'
aS'G'
aS'C'
aS'G'
aS'C'
aS'C'
aS'G'
aS'C'
aS'C'
aS'G'
aa(lp125
S'C'
ag44
aS'F'
aS'G'
aS'F'
aS'C'
ag44
aS'F'
aS'G'
aS'C'
ag79
ag44
ag4
ag79
aS'G'
aS'C'
ag79
ag44
ag4
ag79
aS'G'
aS'F'
aS'C'
ag50
ag90
ag35
aS'F'
aS'D'
aS'G'
aS'F'
aS'C'
ag50
ag90
ag35
aS'F'
aS'D'
ag90
aS'G'
aS'F'
aS'E'
aS'D'
aS'C'
aS'C'
ag44
aS'F'
aS'G'
aS'F'
aS'C'
ag44
aS'F'
aS'G'
aS'C'
ag79
ag44
ag4
ag79
aS'G'
aS'C'
ag79
ag44
ag4
ag79
aS'G'
aS'F'
aS'C'
ag50
ag90
ag35
aS'F'
aS'D'
aS'G'
aS'F'
aS'C'
ag50
ag90
ag35
aS'F'
aS'D'
ag90
aS'G'
aS'F'
aS'E'
aS'D'
aS'C'
aS'F'
aS'C'
aS'F'
aS'G'
aS'F'
aS'C'
ag50
ag90
ag35
aS'F'
aS'D'
aS'G'
aS'F'
aS'C'
ag50
ag90
ag35
aS'F'
aS'D'
ag90
aS'G'
aS'F'
aS'E'
aS'D'
aS'C'
ag90
aS'G'
aS'F'
aS'E'
aS'D'
aS'C'
aa(lp126
g63
ag22
ag63
ag22
ag63
ag22
ag63
ag22
ag63
ag22
ag63
ag22
ag63
ag22
ag63
ag22
ag63
ag31
ag63
ag31
ag63
ag31
ag63
ag63
ag22
ag63
ag22
ag63
ag22
ag63
ag22
ag63
ag31
ag63
ag31
ag63
ag31
ag63
ag57
ag80
ag57
ag80
ag57
ag80
ag57
ag63
ag31
ag63
ag31
ag63
ag31
ag63
ag57
ag80
ag57
ag80
ag57
ag80
ag57
ag80
ag57
ag80
ag57
ag22
ag63
ag22
ag63
aa(lp127
S'C'
ag22
aS'A'
ag79
aS'G'
ag16
aS'C'
aS'C'
ag22
aS'A'
ag79
aS'G'
aS'C'
ag56
aS'F'
ag85
aS'C'
ag93
ag6
aS'C'
ag22
aS'A'
ag79
aS'F'
ag44
ag79
ag61
ag79
aS'G'
aS'C'
aS'C'
ag22
aS'A'
ag79
aS'F'
ag44
ag79
ag61
ag79
aS'G'
aa(lp128
S'C'
aS'F'
ag36
aS'C'
ag6
aS'C'
ag44
aS'C'
ag44
aS'F'
ag6
aS'F'
ag6
aS'C'
aS'F'
ag36
aS'C'
ag6
aS'C'
aS'F'
ag36
aS'C'
ag6
aS'C'
ag44
aS'C'
ag44
aS'F'
ag6
aS'F'
ag6
aS'C'
aS'F'
ag36
aS'C'
ag90
aS'F'
ag6
aS'C'
aa(lp129
S'C'
aS'F'
aS'G'
aS'C'
aS'F'
aS'G'
aS'C'
aS'F'
aS'C'
aS'G'
aS'C'
aS'F'
aS'G'
aS'C'
aS'F'
aS'G'
aS'C'
aS'F'
aS'G'
aS'C'
aS'F'
aS'C'
aS'G'
aS'C'
aS'F'
aS'G'
aS'C'
aS'F'
aS'G'
aS'C'
aS'F'
aS'G'
aS'C'
aS'F'
aS'G'
aS'C'
aS'F'
aS'G'
aS'C'
aS'F'
aS'C'
aS'G'
aS'C'
aS'F'
aS'G'
aS'C'
aS'F'
aS'G'
aS'C'
aS'F'
aS'G'
aS'C'
aS'F'
aS'G'
aS'C'
aS'F'
aS'G'
aS'C'
aa(lp130
S'C'
aS'F'
aS'C'
aS'E'
ag90
ag79
aS'G'
aS'C'
aS'F'
aS'C'
aS'E'
ag90
ag79
aS'G'
aS'C'
aa(lp131
S'C'
ag91
ag35
aS'G'
aS'E'
ag90
ag23
aS'F'
ag79
aS'C'
aS'C'
aS'C'
ag90
aS'G'
ag90
aS'C'
ag92
aS'C'
ag90
aS'G'
ag90
ag90
ag79
aS'G'
aS'C'
ag92
aS'C'
aS'C'
ag92
aS'C'
ag91
aS'G'
aS'E'
ag90
ag23
aS'F'
ag79
aS'C'
aS'C'
aS'C'
ag90
aS'G'
ag90
ag90
ag79
aS'G'
aS'C'
ag92
aS'C'
aS'C'
ag92
aS'C'
ag91
aS'G'
aS'E'
ag90
ag23
aS'F'
ag79
aS'C'
ag92
aS'C'
aa(lp132
S'C'
aS'F'
aS'G'
aS'C'
aS'F'
aS'G'
ag79
aS'G'
ag79
aS'G'
aS'C'
ag29
aS'G'
aS'C'
ag29
aS'C'
aS'F'
aS'G'
aS'C'
aS'F'
aS'G'
ag79
aS'G'
ag79
aS'G'
aS'C'
ag29
aS'G'
aS'C'
ag29
aS'C'
aS'F'
aS'G'
aS'C'
aS'F'
aS'G'
ag79
aS'G'
ag79
aS'G'
aS'C'
ag29
aS'G'
aS'C'
ag29
aS'G'
aS'C'
ag29
aS'G'
aa(lp133
g63
ag91
aS'G'
ag91
aS'G'
ag63
ag22
ag80
ag22
ag63
ag22
ag80
ag22
ag63
ag22
ag80
ag22
ag63
ag22
ag91
aS'G'
ag67
ag63
ag22
ag80
ag22
ag63
ag22
ag91
aS'G'
aS'F'
aS'G'
ag80
ag22
ag63
aS'F'
aS'G'
ag80
ag22
ag63
aS'F'
aS'G'
ag80
ag22
ag63
ag79
ag31
aS'F'
aS'G'
ag63
ag22
ag80
ag22
ag63
ag22
ag80
ag22
ag63
ag22
ag80
ag22
ag63
ag22
ag91
aa(lp134
S'G'
aS'C'
ag90
aS'F'
aS'G'
aS'C'
ag90
aS'F'
aS'G'
aS'C'
ag90
aS'F'
aS'G'
aS'C'
aS'G'
aS'C'
ag90
aS'F'
aS'G'
aS'C'
ag90
aS'F'
aS'G'
aS'C'
ag90
aS'F'
aS'G'
aS'C'
aS'C'
aS'F'
aS'C'
aS'F'
aS'C'
aS'F'
aS'C'
aS'D'
aS'G'
aS'C'
ag90
aS'F'
aS'G'
aS'C'
ag90
aS'F'
aS'G'
aS'C'
ag90
aS'F'
aS'G'
aS'C'
aS'F'
aS'C'
aS'F'
aS'C'
aS'F'
aS'C'
aS'D'
aS'G'
aS'C'
ag90
aS'F'
aS'G'
aS'C'
ag90
aS'F'
aS'G'
aS'C'
ag90
aS'F'
aS'G'
aS'C'
aa(lp135
g63
ag79
ag31
ag22
ag80
ag31
ag22
ag80
ag63
ag79
ag31
ag22
ag80
ag31
ag22
ag80
ag63
ag79
ag31
ag22
ag80
ag31
ag22
ag80
ag63
ag79
ag31
ag22
ag80
ag31
ag22
ag80
ag63
ag79
ag31
ag22
ag80
ag31
ag22
ag80
ag63
ag79
ag31
ag22
ag80
ag31
ag22
ag80
aa(lp136
g80
ag63
ag80
ag63
ag80
ag63
ag80
ag63
ag76
ag65
ag63
ag76
ag65
ag63
ag80
ag63
ag80
ag63
ag76
ag65
ag63
ag76
ag65
ag80
ag63
ag80
ag63
ag80
ag63
ag80
ag63
ag76
ag65
ag63
ag76
ag65
aa(lp137
g63
ag31
ag63
ag31
ag87
ag79
ag87
ag87
ag79
ag87
ag79
ag26
ag79
ag26
ag63
ag79
ag26
ag63
ag63
ag31
ag63
ag31
ag87
ag79
ag87
ag87
ag79
ag87
ag79
ag26
ag79
ag26
ag63
ag79
ag26
ag63
ag79
ag87
ag79
ag79
ag87
ag79
ag79
ag87
ag79
ag79
ag87
ag79
ag79
ag26
ag79
ag26
ag63
ag79
ag26
ag79
ag26
ag79
ag26
ag63
ag79
ag26
ag63
ag9
ag57
ag63
ag57
ag31
ag63
ag9
ag63
ag63
ag9
ag63
ag9
aa(lp138
S'C'
ag90
aS'F'
aS'G'
ag90
aS'C'
ag90
aS'F'
aS'G'
aS'C'
aS'F'
aS'C'
ag93
ag119
aS'C'
ag90
aS'F'
aS'G'
ag80
ag22
ag80
ag22
ag80
aS'C'
aS'F'
aS'C'
ag93
ag119
aS'C'
ag90
aS'F'
aS'G'
ag90
aS'F'
aS'G'
ag90
aS'C'
aS'F'
aS'C'
aS'F'
aS'C'
aS'F'
aS'C'
aS'F'
aS'C'
aS'F'
aS'C'
aS'F'
aS'C'
aS'F'
aS'C'
aS'F'
aa(lp139
S'C'
ag92
aS'C'
ag92
aS'C'
ag92
aS'C'
ag92
aS'C'
ag92
aS'C'
ag92
aS'C'
ag92
aS'C'
ag92
aS'C'
ag92
aS'C'
ag92
aS'C'
aS'C'
ag92
aS'C'
ag92
aS'C'
ag92
aS'C'
ag92
aS'C'
ag92
aS'C'
ag92
aS'C'
ag92
aS'C'
ag92
aS'C'
ag92
aS'C'
ag92
aS'C'
ag92
aS'C'
aS'C'
ag92
aS'C'
ag92
aS'C'
ag92
aS'C'
ag92
aS'C'
ag92
aS'C'
aS'C'
ag92
aS'C'
aa(lp140
S'C'
ag77
aS'G'
aS'F'
aS'C'
aS'F'
aS'C'
ag77
aS'G'
aS'F'
aS'C'
aS'F'
ag29
aS'C'
ag29
aS'C'
ag77
aS'G'
aS'F'
aS'C'
aS'F'
aS'C'
ag77
aS'G'
aS'F'
aS'C'
aS'F'
ag29
aS'C'
ag29
aS'C'
ag77
aS'G'
aS'F'
aS'C'
aS'F'
aS'C'
ag77
aS'G'
aS'F'
aS'C'
aS'F'
ag29
aS'C'
ag29
aS'C'
ag29
aS'C'
ag29
aS'C'
aS'G'
aa(lp141
g63
ag80
ag59
ag57
ag63
ag80
ag59
ag57
ag29
aS'G'
ag29
aS'G'
ag29
aS'G'
ag29
aS'G'
ag29
aS'G'
ag29
aS'G'
ag29
aS'G'
ag29
aS'G'
ag29
aS'G'
ag29
ag63
ag29
aS'G'
ag29
aS'G'
ag29
aS'G'
ag29
aS'G'
ag29
aS'G'
ag29
aS'G'
ag29
aS'G'
ag29
aS'G'
ag29
aS'G'
ag29
aS'G'
ag29
aS'G'
ag29
ag63
ag63
ag80
ag59
ag57
ag63
ag80
ag59
ag57
ag29
aS'G'
aa(lp142
S'F'
aS'C'
ag90
aS'G'
aS'F'
ag90
aS'G'
aS'F'
ag90
aS'G'
aS'F'
aS'C'
ag90
aS'G'
aS'F'
aS'C'
ag90
aS'G'
aS'F'
aS'C'
ag90
aS'G'
aS'F'
aS'C'
ag90
aS'G'
aS'F'
aS'C'
ag90
aS'G'
aS'G'
aS'F'
aS'C'
ag90
aS'G'
aS'F'
aS'C'
ag90
aS'G'
aS'F'
aS'C'
ag90
aS'G'
aS'F'
aS'C'
ag90
aS'G'
aS'F'
aS'C'
ag90
aS'G'
aS'F'
aS'C'
ag90
aS'G'
ag90
aS'G'
aS'F'
aS'C'
ag90
aS'G'
aS'F'
ag90
aS'G'
aS'F'
ag90
aS'G'
aS'F'
aS'G'
aS'F'
aS'C'
ag90
aS'G'
aS'F'
aS'C'
ag90
aS'G'
aS'F'
aS'C'
ag90
aS'G'
aS'F'
aS'C'
ag90
aS'G'
ag90
aS'G'
aS'F'
aS'C'
ag90
aS'G'
aS'F'
ag90
aS'G'
aS'F'
ag90
aS'G'
aS'F'
aS'G'
aS'F'
aS'C'
ag90
aS'G'
aS'F'
aS'C'
ag90
aS'G'
aS'F'
aS'C'
ag90
aS'G'
aS'F'
aS'C'
ag90
aS'G'
ag90
aS'G'
aS'F'
aS'C'
ag90
aS'G'
aS'F'
ag90
aS'G'
aS'F'
ag90
aS'G'
aS'F'
aS'G'
aS'F'
aS'C'
ag90
aS'G'
aS'F'
aS'C'
ag90
aS'G'
aa(lp143
S'C'
aS'F'
aS'C'
aS'G'
aS'C'
aS'F'
aS'C'
aS'G'
aS'C'
aS'C'
aS'F'
aS'C'
aS'G'
aS'C'
aS'C'
aS'F'
aS'C'
aS'G'
aS'C'
aa(lp144
S'C'
aS'F'
aS'C'
aS'F'
aS'C'
aS'F'
aS'C'
aS'F'
aS'C'
ag22
aS'F'
ag80
aS'C'
aS'F'
aS'C'
aS'F'
aS'C'
aS'F'
aS'C'
aS'F'
aS'C'
ag22
aS'F'
ag80
aS'C'
aS'F'
aS'C'
aS'F'
aS'C'
aS'F'
aS'C'
aS'F'
aS'C'
ag22
aS'F'
ag80
aS'C'
aS'F'
aS'C'
aS'F'
aS'C'
aS'F'
aS'C'
aS'F'
aS'C'
ag22
aS'F'
ag80
aS'C'
ag22
aS'F'
ag80
aS'C'
ag22
aS'F'
ag80
aS'C'
ag22
aS'F'
ag80
aa(lp145
S'C'
ag22
aS'F'
aS'C'
ag22
aS'F'
aS'C'
ag26
aS'F'
aS'C'
ag26
aS'F'
aS'C'
ag22
aS'F'
aS'C'
ag22
aS'F'
aS'C'
ag26
aS'F'
aS'C'
ag26
aS'F'
aS'C'
ag22
aS'F'
aS'C'
ag22
aS'F'
aS'C'
ag26
aS'F'
aS'C'
ag26
aS'F'
aS'C'
ag26
aS'F'
aS'C'
ag26
aS'F'
aS'C'
aa(lp146
g40
aS'C'
aS'F'
aS'C'
ag40
aS'C'
aS'F'
aS'C'
ag40
aS'C'
aS'F'
aS'C'
ag40
aS'C'
aS'F'
aS'C'
aS'G'
aS'C'
aS'F'
aS'C'
ag40
aS'C'
aS'F'
aS'C'
ag40
aS'C'
aS'F'
aS'C'
ag40
aS'C'
aS'F'
aS'C'
ag40
aS'C'
aS'G'
aS'C'
aS'G'
aS'C'
aS'F'
aS'G'
aS'C'
aS'F'
aS'G'
aS'C'
aS'F'
aS'C'
ag40
aS'C'
aS'F'
aS'C'
ag40
aS'C'
aS'F'
aS'C'
ag40
aS'C'
aS'F'
aS'C'
ag40
aS'C'
aS'G'
aS'C'
aS'G'
aS'C'
aS'F'
aS'G'
aS'C'
aS'C'
aS'F'
aS'C'
aS'G'
aS'C'
aS'F'
aS'C'
aS'G'
aS'C'
aS'F'
aS'C'
ag40
aS'C'
aS'F'
aS'C'
ag40
aS'C'
aS'F'
aS'C'
ag40
aS'C'
aS'F'
aS'C'
ag40
aS'C'
aS'G'
aS'C'
aS'G'
aS'C'
aS'F'
aS'G'
aS'C'
aS'C'
aS'F'
aS'C'
aS'G'
aS'C'
aS'F'
aS'G'
aS'C'
aS'C'
aS'F'
aS'C'
aS'G'
aS'C'
aS'G'
aS'C'
aS'F'
aS'G'
aS'C'
aa(lp147
S'C'
ag19
ag35
ag85
ag35
ag93
ag6
ag6
aS'C'
ag19
ag35
aS'F'
ag85
ag35
ag93
ag6
ag90
aS'D7'
p148
ag90
ag24
ag44
ag18
ag93
ag6
aS'C'
ag19
ag90
ag35
aS'F'
ag85
ag35
ag93
ag6
aS'C'
ag90
ag29
ag90
ag90
ag29
ag90
ag90
ag29
ag90
ag24
ag44
ag18
ag93
ag6
aS'C'
ag19
ag90
ag35
aS'F'
ag85
ag35
ag93
ag6
ag82
aS'A7'
p149
ag93
ag6
aS'C'
ag45
aa(lp150
S'C'
ag22
ag80
ag22
aS'C'
ag22
ag80
ag22
aS'C'
ag22
ag80
ag22
aS'C'
ag22
ag80
ag22
aS'C'
aS'C'
ag22
ag80
ag22
aS'C'
ag22
ag80
ag22
aS'C'
ag22
ag80
ag22
aS'C'
ag22
ag80
ag22
aS'C'
ag22
ag80
ag22
aS'C'
ag22
ag80
ag22
aS'C'
ag22
ag80
ag22
aS'C'
aa(lp151
S'C'
aS'F'
aS'C'
aS'F'
ag90
aS'F'
aS'G'
ag90
aS'F'
aS'G'
ag90
aS'F'
aS'G'
aS'C'
aS'F'
aS'C'
aS'F'
ag90
aS'F'
aS'G'
ag90
aS'F'
aS'G'
ag90
aS'F'
aS'G'
ag90
aS'F'
aS'G'
ag90
aS'F'
aS'G'
ag90
aS'F'
aS'G'
ag90
aS'F'
aS'G'
ag90
aS'F'
ag90
aS'F'
aS'G'
ag90
aS'F'
aa(lp152
g13
ag58
ag79
ag41
ag35
ag84
ag35
ag14
aS'F'
ag34
ag29
ag13
ag58
ag79
ag41
ag35
ag84
ag35
ag14
aS'F'
ag34
ag29
aS'F'
ag34
ag29
ag13
ag58
ag79
ag41
ag35
ag84
ag35
ag14
aS'F'
ag34
ag29
aS'F'
ag34
ag29
aS'F'
ag34
ag29
aS'F'
ag34
ag29
aS'F'
ag34
ag29
aS'F'
ag34
ag29
aS'F'
ag34
ag29
aa(lp153
S'C'
aS'F'
aS'C'
aS'G'
aS'F'
aS'C'
aS'F'
aS'C'
aS'G'
aS'F'
aS'C'
aS'F'
aS'C'
aS'G'
aS'F'
aS'C'
aS'C'
aS'F'
aS'C'
aS'G'
aS'F'
aS'C'
aS'F'
aS'C'
aS'G'
aS'F'
aa(lp154
g63
ag49
ag32
aS'G'
ag63
ag49
ag32
aS'G'
aS'C'
aS'F'
aS'C'
aS'F'
aS'C'
aS'F'
aS'C'
aS'F'
aS'C'
aS'F'
aS'C'
aS'F'
aS'C'
aS'F'
aS'C'
aS'F'
aS'C'
aS'F'
aS'C'
aS'F'
aS'C'
aS'C'
aS'F'
aS'C'
aS'F'
aS'C'
ag63
ag49
ag32
aS'G'
ag63
ag49
ag32
aS'C'
aS'F'
aS'C'
aS'F'
aS'C'
aS'F'
aS'C'
aS'F'
aS'C'
aS'F'
aS'C'
aS'F'
aS'C'
aS'F'
aS'C'
aS'F'
aS'C'
aS'F'
aS'C'
aS'F'
aS'C'
aS'C'
aS'F'
aS'C'
aS'F'
aS'C'
aS'F'
aS'C'
aS'F'
aS'C'
aS'F'
aS'C'
aS'F'
aS'C'
aS'F'
aS'C'
aS'F'
aS'C'
aS'F'
aS'C'
aS'F'
aS'C'
aS'F'
ag22
aS'F'
ag22
aS'C'
aS'F'
aS'C'
aS'F'
aS'C'
aS'C'
ag79
aS'G'
aS'C'
ag79
aS'G'
aS'C'
ag79
aS'G'
ag62
aS'C'
aS'F'
aS'C'
aS'F'
aS'C'
aS'C'
aS'F'
aS'C'
aS'F'
aS'C'
aS'C'
aS'C'
aS'C'
aS'C'
aa(lp155
S'C'
aS'F'
aS'G'
aS'F'
aS'C'
aS'F'
aS'G'
aS'F'
aS'C'
aS'F'
aS'C'
aS'F'
aS'G'
aS'C'
aS'F'
aS'G'
aS'F'
aS'C'
aS'C'
aS'F'
aS'C'
aS'F'
aS'G'
aS'C'
aS'F'
aS'G'
aS'F'
aS'C'
aa(lp156
g90
aS'C'
ag90
aS'C'
ag90
aS'F'
aS'G'
aS'C'
aS'G'
aS'C'
aS'F'
aS'G'
ag90
aS'F'
aS'G'
ag19
ag90
aS'F'
ag90
aS'F'
aS'C'
aS'G'
aS'C'
ag90
aS'C'
ag90
aS'C'
ag90
aS'F'
aS'G'
aS'C'
aS'G'
aS'C'
aS'F'
aS'G'
ag90
aS'F'
aS'G'
ag19
ag90
aS'F'
ag90
aS'F'
aS'C'
aS'G'
aS'C'
aS'C'
ag90
aS'C'
ag90
aS'F'
aS'G'
aS'C'
aS'G'
aS'C'
aS'F'
aS'G'
ag90
aS'F'
aS'G'
ag19
ag90
aS'F'
ag90
aS'F'
aS'C'
aS'G'
aS'C'
ag90
aS'C'
ag90
aS'C'
ag90
aS'F'
aS'G'
aS'C'
aS'G'
aS'C'
aS'F'
aS'G'
ag90
aS'F'
aS'G'
ag19
ag90
aS'F'
ag90
aS'F'
aS'C'
aS'G'
aS'G'
aS'C'
ag90
aS'C'
ag90
aS'F'
aS'G'
aS'C'
aS'G'
aS'C'
aS'F'
aS'G'
ag90
aS'F'
aS'G'
ag19
ag90
aS'F'
ag90
aS'F'
aS'C'
aS'G'
aS'F'
ag90
aS'F'
aS'C'
aS'G'
aS'F'
ag90
aS'F'
aS'C'
aS'F'
ag90
aS'F'
aS'G'
aa(lp157
g79
ag22
aS'G'
aS'C'
ag44
ag90
aS'F'
ag22
aS'C'
ag44
ag90
aS'F'
ag22
ag79
ag22
aS'G'
aS'C'
ag44
ag90
aS'F'
ag22
aS'C'
ag44
ag90
aS'F'
ag22
ag79
ag22
aS'G'
aS'C'
ag44
ag90
aS'F'
ag22
aS'C'
ag44
ag90
aS'F'
ag22
ag79
ag22
aS'G'
aS'C'
ag90
aS'C'
aa(lp158
S'F'
aS'C'
aS'F'
aS'C'
aS'F'
ag22
aS'C'
ag26
ag79
aS'C'
ag22
aS'F'
aS'C'
aS'F'
aS'C'
aS'F'
aS'C'
aS'F'
aS'C'
aS'F'
ag22
aS'C'
ag79
aS'C'
ag22
aS'F'
aS'C'
aS'C'
aS'F'
aS'C'
aS'F'
ag22
aS'C'
ag26
ag79
aS'C'
ag22
aS'F'
aS'C'
aS'C'
aS'F'
aS'C'
aS'F'
ag22
aS'C'
ag26
ag79
aS'C'
ag22
aS'F'
aS'C'
aS'F'
aS'C'
aS'F'
aS'C'
aS'F'
aS'C'
aS'F'
ag22
aS'C'
ag26
ag79
aS'C'
ag22
aS'F'
aS'C'
aS'F'
aS'C'
aS'F'
aS'C'
aS'F'
aS'C'
aS'F'
ag22
aS'C'
ag79
aS'C'
ag22
aS'F'
aS'C'
aa(lp159
S'C'
aS'F'
aS'C'
aS'D'
aS'G'
aS'C'
aS'F'
aS'C'
aS'G'
aS'C'
aS'G'
aS'C'
aS'G'
aS'C'
aS'F'
aS'C'
aS'D'
aS'G'
aS'C'
aS'F'
aS'C'
aS'G'
aS'C'
aS'G'
aS'C'
aS'G'
aS'C'
aS'C'
aS'G'
aS'C'
aS'G'
aS'C'
aS'G'
aS'C'
aS'G'
aS'C'
aa(lp160
g63
ag22
ag63
ag22
ag63
ag57
ag26
ag63
ag57
ag26
ag63
ag57
ag26
ag63
ag57
ag26
ag63
ag26
ag63
ag26
ag63
ag26
ag63
ag63
ag22
ag63
ag22
ag63
ag57
ag26
ag63
ag57
ag26
ag63
ag57
ag26
ag63
ag57
ag26
ag63
ag26
ag63
ag63
ag26
ag63
ag63
ag22
ag63
ag22
ag63
ag57
ag26
ag63
ag57
ag26
ag63
ag57
ag26
ag63
ag57
ag26
ag63
ag26
ag63
ag26
ag63
ag26
ag63
ag63
ag22
ag63
ag22
ag63
ag57
ag26
ag63
ag57
ag26
ag63
ag57
ag26
ag63
ag57
ag26
ag63
ag57
ag26
ag63
ag57
ag26
ag63
ag57
ag26
ag63
ag57
ag26
ag63
ag57
ag26
ag63
ag57
ag26
ag63
ag57
ag26
ag63
ag57
ag26
ag63
aa(lp161
g63
aS'G'
ag22
aS'F'
ag80
ag31
ag57
aS'G'
ag63
aS'G'
ag22
aS'F'
ag80
ag31
ag57
aS'G'
ag80
ag31
ag6
ag63
ag80
ag31
ag57
aS'G'
ag63
aS'G'
ag22
aS'F'
ag80
ag31
ag57
aS'G'
ag63
aS'G'
ag22
aS'F'
ag80
ag31
ag57
aS'G'
ag80
ag31
ag6
ag63
ag80
ag31
ag57
aS'G'
ag63
aS'G'
ag22
aS'F'
ag80
ag31
ag57
aS'G'
ag63
aS'G'
ag22
aS'F'
ag80
ag31
ag57
aS'G'
aa(lp162
g6
ag63
ag31
aS'F'
ag80
ag63
ag31
aS'G'
ag63
ag31
aS'F'
ag80
ag63
aS'G'
ag63
ag6
ag63
ag31
aS'F'
ag63
ag31
aS'G'
ag63
ag31
aS'F'
ag80
ag63
aS'G'
ag63
ag6
ag63
ag31
aS'F'
ag80
ag63
ag31
aS'G'
ag63
ag31
aS'F'
ag80
ag63
aS'G'
ag6
ag63
ag31
aS'F'
ag80
ag63
ag31
aS'G'
ag63
ag31
aS'F'
ag80
ag63
aS'G'
ag6
ag63
ag31
aS'F'
ag80
ag63
ag31
aS'G'
ag63
ag31
aS'F'
ag80
ag63
aS'G'
ag6
ag63
ag31
aS'F'
ag80
ag63
ag31
aS'G'
ag63
ag31
aS'F'
ag80
ag63
aS'G'
ag63
aa(lp163
S'Dm7'
p164
aS'C'
ag75
aS'C'
ag75
aS'C'
ag75
aS'C'
ag75
ag19
ag90
ag37
ag35
ag62
aS'C'
ag72
ag29
ag62
ag46
ag72
ag37
ag35
ag37
ag90
ag62
aS'C'
ag75
aS'C'
ag75
aS'C'
ag75
aS'C'
ag75
ag19
ag90
ag37
ag35
ag62
aS'C'
ag72
ag29
ag62
ag46
ag72
ag37
ag35
ag37
ag90
ag29
ag34
ag62
ag90
ag37
ag35
ag62
aS'C'
ag72
ag29
ag62
ag46
ag72
ag37
ag35
ag37
ag35
ag37
ag35
ag37
ag35
ag37
ag35
ag37
aa(lp165
g53
ag72
ag53
ag34
ag72
ag53
ag72
ag53
ag34
ag72
ag79
ag35
aS'G'
ag34
ag53
aS'C'
ag53
aS'C'
ag72
ag53
ag68
ag72
ag53
ag68
ag72
ag79
aS'G'
ag53
aS'C'
ag53
ag72
ag53
ag72
ag53
ag34
ag72
ag53
ag72
ag53
ag34
ag72
ag79
ag34
ag53
aS'C'
ag53
aS'C'
ag53
ag72
ag53
ag68
ag72
ag53
ag68
ag72
ag79
aS'G'
ag53
aS'C'
ag53
ag53
aa(lp166
g56
aS'F'
aS'C'
aS'G'
aS'C'
aS'F'
aS'C'
aS'G'
aS'C'
aS'C'
aS'F'
aS'C'
aS'G'
aS'C'
aS'F'
aS'C'
aS'G'
aS'C'
aS'F'
ag56
aS'F'
aS'C'
aS'G'
aS'C'
aS'F'
aS'C'
aS'G'
aS'C'
aS'C'
aS'F'
aS'C'
aS'G'
aS'C'
aS'F'
aS'C'
aS'G'
aS'C'
aS'F'
ag56
aS'F'
aS'C'
aS'G'
aS'C'
aS'F'
aS'C'
aS'G'
aS'C'
aS'F'
aS'C'
aa(lp167
S'C'
aS'F'
aS'C'
aS'F'
aS'C'
aS'G'
aS'C'
aS'C'
aS'F'
aS'C'
aS'F'
aS'C'
aS'G'
aS'C'
aS'C'
aS'F'
aS'C'
aS'F'
aS'C'
aS'F'
aS'C'
aS'G'
aS'C'
aS'C'
aS'F'
aS'C'
aS'F'
aS'C'
aS'G'
aS'C'
aS'C'
aS'F'
aS'C'
aS'F'
aS'C'
aS'G'
aS'C'
aS'C'
aS'F'
aS'C'
aS'F'
aS'C'
aS'F'
aS'C'
aS'G'
aS'C'
aa(lp168
g63
aS'F'
ag63
aS'G'
aS'F'
ag63
aS'F'
ag63
aS'G'
aS'F'
ag90
aS'F'
ag63
aS'F'
ag63
aS'F'
ag63
aS'F'
ag63
aS'F'
ag63
aS'F'
ag63
aS'F'
ag63
aS'G'
aS'F'
ag63
aS'F'
ag63
aS'G'
aS'F'
ag90
aS'F'
ag63
aS'F'
ag63
aS'F'
ag63
aS'F'
ag63
aS'F'
ag63
aS'F'
ag63
aS'F'
ag63
aS'G'
aS'F'
aS'F'
ag63
aS'G'
aS'F'
ag90
aS'F'
ag63
aS'F'
ag63
aS'F'
ag63
aS'F'
ag63
aS'F'
ag63
aS'F'
ag63
aa(lp169
S'C'
ag22
ag6
aS'C'
aS'C'
ag22
ag6
aS'C'
aS'C'
ag6
aS'C'
aS'C'
ag22
ag6
aS'C'
aS'F'
ag90
ag38
aS'C'
ag22
aS'C'
aS'C'
ag22
aS'C'
aS'F'
ag93
ag79
aS'G'
aS'C'
aS'F'
aS'C'
ag38
aS'C'
aS'C'
aS'C'
ag22
aS'C'
aS'F'
ag93
ag79
aS'G'
aa(lp170
S'C7'
p171
ag64
ag171
aS'G'
aS'C'
aS'F'
ag80
aS'C'
aS'G'
ag171
ag64
ag171
aS'G'
aS'C'
aS'F'
ag80
aS'C'
aS'G'
ag171
aS'F'
aS'G'
aS'F'
ag171
ag64
ag171
aS'G'
aS'C'
aS'F'
ag80
aS'C'
aS'G'
ag171
ag171
aS'F'
aS'G'
aS'F'
ag171
ag64
ag171
aS'G'
aS'C'
aS'F'
ag80
aS'C'
aS'G'
ag171
aS'G'
ag171
aS'G'
aS'F'
aa(lp172
S'C'
aS'F'
aS'C'
aS'F'
aS'C'
aS'G'
aS'F'
aS'C'
aS'G'
aS'F'
aS'C'
aS'F'
aS'C'
aS'F'
aS'C'
aS'G'
aS'F'
aS'C'
aS'G'
aS'F'
aS'C'
aS'C'
aS'F'
aS'C'
aS'F'
aS'C'
aS'G'
aS'F'
aS'C'
aS'G'
aS'F'
aS'C'
aS'G'
aS'F'
aS'C'
aS'G'
aS'F'
aS'C'
aa(lp173
S'C'
aS'G'
aS'C'
aS'G'
aS'C'
aS'F'
aS'C'
aS'G'
aS'C'
aS'C'
aS'G'
aS'C'
aS'G'
aS'C'
aS'F'
aS'C'
aS'G'
aS'C'
aS'C'
aS'G'
aS'C'
aS'G'
aS'C'
aS'F'
aS'C'
aS'G'
aS'C'
aS'C'
aS'G'
aS'C'
aS'G'
aS'C'
aS'F'
aS'C'
aS'G'
aS'C'
aS'C'
aS'G'
aS'C'
aS'G'
aS'C'
aS'F'
aS'C'
aS'G'
aS'C'
aa(lp174
S'C'
aS'F'
aS'C'
aS'F'
aS'C'
aS'G'
aS'C'
aS'G'
aS'C'
aS'G'
aS'C'
aS'F'
aS'G'
aS'C'
aS'F'
aS'C'
aS'F'
aS'C'
aS'G'
aS'C'
aS'G'
aS'C'
aS'G'
aS'C'
aS'F'
aS'G'
aS'C'
aS'C'
aS'F'
aS'C'
aS'F'
aS'C'
aS'G'
aS'C'
aS'G'
aS'C'
aS'G'
aS'C'
aS'F'
aS'G'
aS'C'
aS'F'
aS'C'
aS'F'
aS'C'
aS'G'
aS'C'
aS'G'
aS'C'
aS'G'
aS'C'
aS'F'
aS'G'
aS'C'
aS'F'
aS'G'
aS'C'
aS'F'
aS'G'
aS'C'
aS'F'
aS'G'
aS'C'
aS'F'
aS'G'
aS'C'
aa(lp175
S'G'
aS'C'
aS'G'
ag90
ag44
aS'C'
aS'G'
ag90
aS'F'
aS'G'
aS'C'
ag90
aS'F'
aS'G'
aS'C'
aS'G'
ag90
ag44
aS'C'
aS'G'
ag90
aS'F'
aS'G'
aS'C'
ag90
aS'F'
aS'G'
aS'C'
ag29
aS'G'
aS'C'
ag90
ag29
aS'G'
aS'C'
aS'G'
aS'F'
aS'G'
aS'F'
aS'G'
aS'C'
aS'G'
ag90
ag44
aS'C'
aS'G'
ag90
aS'F'
aS'G'
aS'C'
ag90
aS'F'
aS'G'
aS'C'
ag29
aS'G'
aS'C'
ag90
ag29
aS'G'
aS'C'
aS'G'
aS'F'
aS'G'
aS'F'
aS'G'
aS'C'
aS'G'
ag90
ag44
aS'C'
aS'G'
ag90
aS'F'
aS'G'
aS'C'
ag90
aS'F'
aS'G'
ag44
aS'F'
aS'G'
aS'F'
aa(lp176
S'C'
aS'F'
ag79
aS'G'
ag34
aS'F'
aS'C'
aS'F'
ag90
ag34
aS'F'
aS'C'
ag79
aS'G'
aS'C'
aS'F'
ag90
ag34
aS'F'
aS'C'
ag79
aS'G'
aS'C'
ag90
ag34
aS'F'
aS'C'
ag79
aS'G'
aS'C'
aS'F'
aS'G'
ag90
ag34
aS'F'
aS'C'
ag79
aS'G'
aS'C'
aS'F'
aS'C'
aS'F'
aS'C'
aS'F'
aS'C'
aS'F'
aS'C'
aS'F'
ag90
ag34
aS'F'
aS'C'
ag79
aS'G'
aS'C'
aS'F'
ag90
ag34
aS'F'
aS'C'
ag79
aS'G'
aS'C'
aS'F'
ag90
ag34
aS'F'
aS'C'
ag79
aS'G'
aS'C'
aS'F'
aS'G'
ag90
ag34
aS'F'
aS'C'
ag79
aS'C'
aS'C'
aS'C'
aS'C'
aS'C'
aS'F'
ag79
aS'G'
ag90
aS'F'
aS'C'
ag79
aS'G'
aS'C'
aS'F'
aS'F'
aS'C'
aS'F'
ag79
aS'G'
ag90
ag34
aS'F'
aS'C'
ag79
aS'G'
aS'F'
aS'F'
aS'C'
aS'F'
ag79
aS'G'
ag34
aS'C'
aS'G'
aS'C'
aS'C'
aa(lp177
S'C'
aS'F'
aS'C'
aS'G'
aS'C'
aS'F'
aS'C'
aS'G'
aS'C'
aS'C'
aS'F'
aS'C'
aS'G'
aS'C'
aS'C'
aS'F'
aS'C'
aS'G'
aS'C'
aa(lp178
S'C'
aS'F'
aS'C'
aS'F'
aS'C'
aS'E'
aS'F'
aS'G'
aS'C'
aS'F'
aS'C'
aS'F'
aS'C'
aS'F'
aS'C'
aS'E'
aS'F'
aS'G'
aS'C'
aS'F'
aS'C'
aS'F'
aS'C'
aS'F'
aS'C'
aS'E'
aS'F'
aS'G'
aS'C'
aS'F'
aS'C'
aS'F'
aS'C'
aS'F'
aS'C'
aS'E'
aS'F'
aS'G'
aS'C'
aS'F'
aS'C'
aS'F'
aS'C'
aS'C'
aS'F'
aS'C'
aS'E'
aS'F'
aS'G'
aS'C'
aS'F'
aS'C'
aS'F'
aa(lp179
S'C'
aS'C'
aS'C'
aS'C'
aS'F'
ag55
ag79
aS'G'
aS'C'
aS'F'
aS'C'
aS'C'
aS'F'
aS'C'
aS'F'
ag55
ag79
aS'G'
aS'F'
aS'G'
aS'C'
aS'F'
aS'G'
aS'F'
aS'G'
aS'C'
aS'F'
aS'G'
aS'C'
aS'C'
aS'C'
aS'F'
aS'C'
aS'F'
ag55
ag79
aS'G'
aS'F'
aS'G'
aS'C'
aS'F'
aS'G'
aS'F'
aS'G'
aS'C'
aS'F'
aS'G'
aS'C'
aa(lp180
g63
ag80
ag63
ag80
ag63
ag80
ag63
ag80
ag89
aS'C'
ag90
aS'C'
ag90
aS'C'
ag90
aS'C'
ag90
aS'D'
aS'D'
aS'F'
aS'C'
ag90
aS'C'
ag90
aS'C'
ag90
aS'C'
ag90
aS'D'
aS'D'
aS'F'
aS'C'
ag63
ag80
ag63
ag80
ag63
ag80
ag63
ag80
ag89
aS'C'
ag90
aS'C'
ag90
aS'C'
ag90
aS'C'
ag90
aS'D'
aS'D'
aS'F'
aS'C'
ag90
aS'C'
ag90
aS'C'
ag90
aS'C'
ag90
aS'D'
aS'D'
aS'F'
aS'C'
ag89
aS'C'
ag90
aS'C'
ag90
aS'C'
ag90
aS'C'
ag90
aS'D'
aS'D'
aS'F'
aS'C'
ag90
aS'C'
ag90
aS'C'
ag90
aS'C'
ag90
aS'D'
aS'D'
aS'D'
aS'D'
aS'F'
aS'C'
aa(lp181
S'G'
aS'C'
aS'G'
ag90
ag88
aS'F'
aS'C'
aS'G'
ag90
ag88
aS'F'
aS'C'
ag90
aS'F'
ag22
aS'C'
ag90
aS'D'
ag57
aS'C'
aS'G'
aS'C'
aS'G'
ag90
ag88
aS'F'
aS'C'
aS'G'
ag90
ag88
aS'F'
aS'C'
ag90
aS'F'
ag22
aS'C'
ag90
aS'D'
ag57
aS'C'
aS'C'
ag90
aS'F'
ag22
aS'C'
ag90
aS'D'
ag57
aS'C'
aS'G'
ag57
aS'C'
aa(lp182
S'F'
aS'C'
aS'F'
aS'F'
aS'C'
aS'F'
aS'C'
aS'F'
aS'C'
aS'F'
aS'C'
aS'F'
aS'C'
aS'F'
aS'C'
aS'F'
aS'G'
aS'F'
aS'G'
aS'F'
aS'F'
aS'C'
aS'F'
aS'G'
aS'C'
aS'F'
aS'F'
aS'C'
aS'F'
aS'F'
aS'C'
aS'F'
aS'C'
aS'F'
aS'C'
aS'F'
aS'C'
aS'F'
aS'G'
aS'F'
aS'G'
aS'F'
aS'F'
aS'C'
aS'F'
aS'G'
aS'C'
aS'F'
aS'F'
aS'C'
aS'F'
aS'F'
aS'C'
aS'F'
aS'F'
aS'C'
aS'F'
aS'C'
aS'F'
aS'C'
aS'F'
aS'C'
aS'F'
aS'F'
aS'C'
aS'F'
aS'C'
aS'F'
aS'C'
aS'F'
aS'C'
aS'F'
aS'C'
aS'F'
aS'C'
aS'F'
aS'C'
aS'F'
aS'F'
aS'C'
aS'F'
aa(lp183
g6
aS'C'
ag90
aS'F'
ag6
aS'C'
ag90
aS'F'
ag6
aS'C'
aS'F'
aS'C'
aS'F'
aS'C'
aS'F'
ag6
aS'C'
ag90
aS'F'
ag6
aS'C'
aS'F'
aS'C'
ag6
aS'C'
ag90
aS'F'
ag6
aS'C'
aS'F'
ag6
aS'C'
ag90
aS'F'
ag6
aS'C'
ag90
aS'F'
ag6
aa(lp184
g10
ag26
ag63
ag57
aS'G'
ag63
ag26
ag63
ag63
ag63
ag26
ag63
ag26
ag63
ag26
ag63
ag63
ag26
ag63
ag26
ag57
aS'G'
ag63
ag63
ag26
ag63
ag26
ag63
ag26
ag63
ag26
ag63
ag26
ag63
ag26
ag63
ag26
ag26
ag57
aS'G'
ag63
ag26
ag63
ag63
ag63
ag63
ag26
aa(lp185
S'C'
aS'F'
aS'C'
aS'G'
aS'F'
aS'C'
aS'F'
aS'C'
aS'G'
aS'F'
aS'C'
aS'F'
aS'C'
aS'G'
aS'F'
aS'C'
aS'C'
aS'F'
aS'C'
aS'G'
aS'F'
aS'C'
aS'F'
aS'C'
aS'G'
aS'F'
aS'C'
aa(lp186
S'C'
aS'F'
aS'C'
aS'G'
aS'C'
aS'F'
aS'C'
aS'G'
aS'C'
aS'F'
aS'C'
aS'G'
aS'C'
aS'F'
aS'C'
aS'G'
aS'C'
aS'F'
aS'C'
aS'G'
aS'C'
aS'F'
aS'C'
aS'G'
aa(lp187
g22
aS'C'
ag22
ag22
aS'C'
ag22
ag22
ag22
aS'F'
aS'C'
ag22
aS'F'
aS'C'
ag22
aS'C'
ag22
ag22
aS'C'
ag22
ag22
ag22
aS'F'
aS'C'
ag22
aS'F'
aS'C'
ag22
aS'C'
ag22
ag22
aS'C'
ag22
aS'C'
ag22
aS'C'
ag22
aS'C'
ag22
aS'C'
ag22
aS'C'
ag22
ag22
aS'F'
aS'C'
ag22
aS'F'
aS'C'
aS'F'
aS'C'
aS'F'
aS'C'
aS'F'
aS'C'
aS'F'
aS'C'
aS'F'
aS'C'
aS'F'
aa(lp188
S'C'
aS'G'
aS'C'
ag57
aS'G'
ag57
aS'G'
ag57
aS'G'
ag57
aS'G'
ag57
aS'G'
aS'C'
ag57
aS'G'
ag57
aS'G'
ag57
aS'G'
ag57
aS'G'
ag57
aS'G'
aS'G'
ag57
aS'G'
aa(lp189
g90
ag44
ag90
ag80
ag22
aS'C'
ag79
aS'G'
aS'C'
aS'F'
ag79
aS'G'
aS'C'
aS'G'
ag63
ag80
ag22
ag63
ag80
ag22
ag63
ag22
ag63
ag90
ag44
ag90
ag80
ag22
aS'C'
ag79
aS'G'
aS'C'
aS'F'
ag79
aS'G'
aS'C'
aS'G'
ag63
ag22
ag63
ag80
ag22
ag63
ag22
ag63
ag90
ag44
ag90
ag80
ag22
aS'C'
ag79
aS'G'
aS'C'
aS'F'
ag79
aS'G'
aS'C'
aS'G'
ag63
ag80
ag22
ag63
ag22
ag63
ag22
ag63
ag63
ag22
ag63
ag22
ag63
ag22
ag63
aa(lp190
S'C'
aS'G'
ag90
aS'Dm7/F'
p191
aS'C'
aS'G'
aS'F'
aS'C'
aS'G'
ag90
ag191
aS'C'
aS'G'
aS'F'
aS'C'
ag90
ag35
aS'F'
aS'C'
aS'G'
aS'F'
aS'C'
aS'G'
ag90
ag191
aS'C'
aS'G'
aS'F'
aS'C'
aS'G'
ag90
ag191
aS'C'
aS'G'
aS'F'
aS'C'
ag90
ag35
aS'F'
aS'C'
aS'G'
aS'F'
aS'C'
ag90
ag35
aS'F'
aS'C'
aS'G'
aS'F'
aS'C'
ag90
ag35
aS'F'
aS'C'
aS'G'
aS'F'
aS'C'
aS'G'
ag90
ag191
aS'C'
aS'G'
aS'F'
aS'C'
aS'G'
ag90
ag191
aS'C'
aS'G'
aS'F'
aS'C'
ag90
ag35
aS'F'
aS'C'
aS'G'
aS'F'
aS'C'
ag90
ag35
aS'F'
aS'C'
aS'G'
aS'F'
aS'C'
ag90
ag35
aS'F'
aS'C'
aS'G'
aS'F'
aa(lp192
S'C'
aS'F'
aS'G'
aS'C'
aS'F'
aS'G'
aS'C'
aS'F'
aS'G'
aS'C'
aS'F'
aS'G'
aS'C'
aS'F'
aS'G'
aS'C'
aS'F'
aS'G'
aS'C'
aS'F'
aS'G'
aS'C'
aS'F'
aS'G'
aS'C'
aS'F'
aS'G'
aS'C'
aS'F'
aS'C'
aS'G'
aS'C'
aS'F'
aS'C'
aS'F'
aS'G'
aS'C'
aS'F'
aS'G'
aS'C'
aS'F'
aS'G'
aS'C'
aS'G'
aS'F'
aS'C'
aS'F'
aS'F'
aS'C'
aS'F'
aS'G'
aS'F'
aS'C'
aS'F'
aS'F'
ag79
aS'G'
aS'C'
aS'F'
aS'G'
aS'C'
aS'F'
aS'G'
aS'C'
aS'F'
aS'G'
aS'C'
aS'F'
aS'G'
aS'C'
aS'F'
aS'G'
aS'C'
aS'F'
aS'C'
aS'F'
aS'G'
aS'C'
aS'F'
aS'G'
aS'F'
aS'C'
aS'F'
aS'F'
aS'C'
aS'F'
aS'F'
aS'C'
aS'F'
aS'G'
aS'F'
ag79
aS'G'
aS'C'
aS'F'
aS'G'
aS'C'
aS'F'
aS'G'
aS'C'
aS'F'
aS'G'
aS'C'
aS'F'
aS'G'
aS'C'
aS'F'
aS'G'
aS'C'
aS'F'
aS'G'
aS'C'
aS'F'
aS'G'
aS'C'
aS'F'
aS'G'
aS'C'
aS'F'
aS'G'
aS'C'
aS'F'
aS'G'
aa(lp193
S'C'
ag69
aS'F'
ag44
ag79
aS'C'
ag7
ag83
ag44
ag79
aS'C'
ag44
ag83
aS'C'
ag69
aS'F'
ag44
ag79
aS'C'
ag7
ag83
ag44
ag79
aS'C'
ag44
ag83
ag51
ag47
ag79
aS'F'
ag44
ag90
aS'G'
ag31
ag51
ag31
aS'F'
ag44
ag90
aS'G'
aS'C'
ag69
aS'F'
ag44
ag79
aS'C'
ag7
ag83
ag44
ag79
aS'C'
ag44
ag83
ag51
ag47
ag79
aS'F'
ag44
ag79
aS'G'
aa(lp194
S'C'
ag90
ag63
ag90
ag63
ag63
ag90
aS'F'
aS'G'
aS'C'
aS'F'
aS'G'
aS'C'
aS'F'
aS'C'
aS'D7'
p195
ag6
ag63
ag90
ag63
ag90
ag63
ag90
ag63
ag90
aS'F'
aS'G'
aS'C'
aS'F'
aS'G'
aS'C'
aS'F'
aS'C'
ag195
ag6
aS'C'
ag90
ag63
ag90
ag63
ag90
ag63
ag90
aS'F'
aS'G'
aS'C'
aS'F'
aS'G'
aS'C'
aS'F'
aS'C'
ag195
ag6
ag63
ag90
ag63
ag90
ag63
ag63
ag90
aS'F'
aS'G'
aS'C'
aS'F'
aS'G'
aS'C'
ag31
ag22
aS'C'
ag31
ag22
aS'C'
ag31
ag22
aS'C'
ag31
ag22
aS'C'
aa(lp196
S'C'
ag79
ag44
aS'F'
aS'G'
aS'C'
ag79
ag44
aS'F'
aS'G'
aS'F'
aS'G'
aS'F'
aS'G'
aS'F'
ag79
aS'F'
ag79
aS'C'
ag79
aS'F'
aS'G'
aS'G'
aS'G'
aS'G'
aS'C'
aS'G'
aS'G'
aS'C'
ag79
ag44
aS'F'
aS'G'
aS'C'
ag79
ag44
aS'F'
aS'G'
aS'F'
aS'G'
aS'F'
aS'G'
aS'F'
ag44
ag79
aS'C'
aS'F'
ag44
ag79
aS'C'
ag79
aS'F'
aS'G'
aS'G'
aS'G'
aS'G'
aS'G'
aS'G'
aS'G'
aS'C'
ag79
ag44
aS'F'
aS'G'
aS'C'
ag79
ag44
aS'F'
aS'G'
aS'F'
aS'G'
aS'F'
aS'G'
aS'F'
ag44
ag79
aS'F'
ag44
ag79
aS'C'
ag79
aS'F'
aS'G'
aS'G'
aS'G'
aS'C'
aS'G'
aS'G'
aS'G'
aS'G'
aS'C'
ag79
ag44
aS'F'
aS'G'
aS'C'
ag79
ag44
aS'F'
aS'G'
aS'F'
aS'G'
aS'F'
aS'G'
aS'F'
ag44
ag79
aS'F'
ag44
ag79
ag79
aS'F'
aS'G'
aS'G'
aS'G'
aS'G'
aS'G'
aS'G'
aa(lp197
S'F'
aS'G'
ag90
aS'F'
aS'G'
ag90
aS'F'
aS'G'
ag90
aS'F'
aS'G'
ag90
aS'G'
aS'F'
aS'G'
aS'F'
aS'G'
ag90
aS'F'
aS'G'
aS'F'
aS'G'
aS'F'
aS'G'
ag90
aS'F'
aS'G'
ag90
aS'F'
aS'G'
ag90
aS'F'
aS'G'
ag90
aS'G'
aS'F'
aS'G'
aS'F'
aS'G'
ag90
aS'F'
aS'G'
aS'C'
aS'F'
aS'G'
aS'C'
aS'C'
aS'F'
aS'G'
ag90
aS'F'
aS'G'
ag90
aS'G'
aS'F'
aS'G'
aS'F'
aS'G'
ag90
aS'F'
aS'G'
aS'F'
aS'G'
aS'F'
aS'G'
aS'C'
aS'F'
aS'G'
ag90
aS'F'
aS'G'
aS'C'
aS'F'
aS'G'
aS'F'
aS'G'
aS'C'
aS'F'
aS'G'
ag90
aS'F'
aS'G'
aS'C'
aS'F'
aS'G'
aS'F'
ag90
ag90
aS'F'
ag90
aS'F'
aS'G'
ag90
aS'G'
aS'F'
aS'F'
aS'G'
ag90
aS'F'
aS'G'
aS'C'
aS'F'
aS'G'
aS'F'
aS'G'
aS'F'
aS'G'
ag90
aS'F'
aS'G'
aS'C'
aS'F'
aS'G'
aS'F'
aS'C'
aS'F'
aS'G'
aS'C'
aS'C'
aS'F'
aS'G'
ag90
aS'F'
aS'G'
aS'C'
aS'F'
aS'G'
aa(lp198
S'C'
aS'F'
aS'G'
aS'C'
aS'F'
aS'G'
aS'C'
aS'C'
aS'F'
aS'G'
aS'C'
aS'F'
aS'G'
aS'C'
aS'C'
aS'C'
aS'F'
aS'G'
aS'C'
aS'F'
aS'G'
aS'C'
aa(lp199
g63
ag89
ag74
ag31
ag63
ag89
ag74
ag31
ag63
ag89
ag74
ag31
ag63
ag89
ag74
ag31
ag63
ag31
ag63
ag31
ag63
ag31
ag63
ag22
ag63
ag89
ag74
ag31
ag63
ag89
ag74
ag31
ag63
ag89
ag74
ag31
ag63
ag89
ag74
ag31
ag63
ag31
ag63
ag31
ag63
ag31
ag63
ag22
ag31
ag63
ag31
ag63
ag31
ag63
ag31
ag63
ag22
ag63
ag80
ag63
ag80
ag63
ag80
ag63
ag80
ag63
ag63
aa(lp200
g75
ag63
ag80
ag22
ag63
ag80
ag22
ag63
ag80
ag22
ag63
ag80
ag22
ag75
ag63
ag80
ag22
ag63
ag80
ag22
ag63
ag80
ag22
ag63
ag80
ag22
ag75
ag63
ag80
ag22
ag63
ag80
ag22
ag63
ag80
ag22
ag63
ag80
ag22
aa(lp201
g22
ag63
ag26
ag63
ag26
ag26
ag57
ag22
ag63
ag26
ag63
ag26
ag63
ag26
ag57
ag22
ag80
ag63
ag80
ag22
ag63
ag26
ag63
ag26
ag63
ag26
ag57
ag22
ag63
ag26
ag63
ag26
ag63
ag26
ag57
ag22
ag80
ag63
ag80
ag31
ag31
ag57
ag63
ag26
ag63
ag26
ag63
ag26
ag57
ag22
ag80
ag63
ag80
ag63
ag80
ag63
ag80
ag63
ag22
aa(lp202
S'F'
aS'C'
ag26
aS'F'
aS'C'
ag26
aS'F'
aS'C'
ag26
aS'F'
aS'C'
aS'F'
aS'C'
aS'F'
ag26
aS'F'
aS'C'
aS'F'
ag26
aS'F'
aS'C'
aS'F'
ag26
aS'F'
aS'C'
aS'F'
ag26
aS'F'
aS'C'
ag26
aS'F'
aS'C'
ag26
aS'F'
aS'C'
ag26
aS'F'
aS'C'
aS'F'
aS'C'
aS'F'
ag26
aS'C'
aS'F'
ag26
aS'F'
aS'C'
aS'F'
ag26
aS'F'
aS'C'
aS'F'
ag26
aS'F'
aS'C'
ag26
aS'F'
aS'C'
ag26
aS'F'
aS'C'
ag26
aS'F'
aS'C'
aS'F'
aS'C'
aS'F'
aS'C'
aS'F'
ag26
aS'F'
aS'C'
aS'F'
ag26
aS'F'
aS'C'
aS'F'
ag26
aS'F'
aS'C'
aS'F'
ag26
aS'F'
aS'C'
ag26
aS'F'
aS'C'
ag26
aS'F'
aS'C'
ag26
aS'F'
aS'C'
aS'F'
aS'C'
aS'F'
aa(lp203
g63
ag63
ag63
ag38
ag63
ag31
ag63
ag22
ag22
ag63
ag22
ag11
ag57
ag31
ag31
ag63
ag22
ag22
ag63
ag22
ag11
ag57
ag31
ag31
ag31
ag38
ag6
ag63
ag38
ag6
ag63
ag38
ag6
ag63
ag38
ag6
ag63
ag31
ag63
ag22
ag22
ag63
ag22
ag11
ag57
ag31
ag31
ag31
ag38
ag6
ag63
ag38
ag6
ag63
ag38
ag63
ag38
ag63
aa(lp204
S'G'
aS'C'
aS'F'
aS'G'
aS'C'
aS'F'
aS'G'
aS'C'
aS'F'
aS'G'
aS'C'
aS'F'
aS'G'
aS'C'
aS'F'
aS'G'
aS'G'
aS'C'
aS'F'
aS'G'
aS'C'
aS'F'
aS'G'
aS'C'
aS'F'
aS'G'
aS'C'
aS'F'
aS'G'
aS'C'
aS'F'
aS'G'
aS'G'
aS'C'
aS'F'
aS'G'
aS'C'
aS'F'
aS'G'
aS'C'
aS'F'
aS'G'
aS'C'
aS'F'
aS'G'
aS'C'
aS'F'
aS'G'
aS'C'
aS'F'
aS'G'
aS'C'
aS'F'
aS'G'
aa(lp205
S'C'
aS'G'
aS'C'
aS'G'
ag22
aS'F'
aS'G'
aS'C'
aS'G'
aS'C'
aS'G'
ag22
aS'F'
aS'G'
aS'C'
aS'G'
aS'C'
aS'G'
ag22
aS'F'
aS'G'
aS'C'
aS'G'
aS'C'
aS'G'
ag22
aS'F'
aS'G'
aS'C'
aS'G'
aS'C'
aa(lp206
S'G'
aS'F'
aS'C'
aS'G'
aS'F'
aS'C'
aS'F'
aS'C'
aS'F'
aS'G'
ag79
ag44
ag79
aS'C'
ag79
aS'G'
ag79
aS'G'
ag79
aS'G'
aS'C'
aS'G'
aS'F'
aS'C'
aS'G'
aS'F'
aS'C'
aS'F'
aS'C'
aS'F'
aS'G'
ag79
ag44
ag79
ag34
ag79
aS'G'
ag79
aS'G'
ag79
aS'G'
aS'F'
aS'G'
aS'F'
aS'C'
aS'G'
aS'F'
aS'C'
aS'F'
aS'C'
aS'F'
aS'G'
ag79
ag44
ag79
ag34
ag79
aS'G'
ag79
aS'G'
ag79
aS'G'
aS'F'
aS'G'
aS'F'
aS'C'
aS'G'
aS'F'
aS'C'
aS'F'
aS'C'
aS'F'
aS'G'
ag79
ag44
ag79
ag34
ag79
aS'G'
ag79
aS'G'
ag79
aS'G'
aS'F'
aS'C'
aS'Gsus4'
p207
aS'F'
aS'C'
aS'C'
ag207
aS'F'
aS'C'
ag207
aa(lp208
S'C'
aS'F'
aS'C'
aS'G'
aS'C'
aS'F'
aS'C'
aS'G'
aS'C'
aS'F'
aS'C'
aS'G'
aS'C'
aS'C'
aS'F'
aS'C'
aS'G'
aS'C'
aS'F'
aS'C'
aS'G'
aS'C'
aa(lp209
S'C'
aS'G'
aS'C'
aS'F'
aS'C'
aS'G'
aS'F'
aS'C'
aS'G'
aS'C'
aS'F'
aS'C'
aS'G'
aS'C'
aS'C'
aS'G'
aS'C'
aS'F'
aS'C'
aS'G'
aS'F'
aS'C'
aS'G'
aS'C'
aS'F'
aS'C'
aS'G'
aS'C'
aS'G'
aS'C'
aS'G'
aS'C'
aS'G'
aS'C'
aS'G'
aS'C'
aa(lp210
S'F'
aS'G'
aS'C'
aS'F'
aS'C'
aS'F'
aS'G'
aS'F'
aS'G'
aS'C'
aS'F'
aS'C'
aS'F'
aS'G'
aS'C'
aS'F'
aS'G'
aS'C'
aS'F'
aS'C'
aS'F'
aS'C'
aS'F'
aS'C'
aS'F'
aS'C'
aS'F'
aS'G'
aS'F'
aS'G'
aS'C'
aS'F'
aS'C'
aS'F'
aS'C'
aS'F'
aS'G'
aS'F'
aS'G'
aS'C'
aS'F'
aS'C'
aS'F'
aS'G'
aS'F'
aS'G'
aS'C'
aS'F'
aS'C'
aS'F'
aS'G'
aS'C'
aa(lp211
S'C'
ag91
aS'G'
aS'C'
ag91
aS'C'
ag91
aS'G'
ag91
aS'G'
aS'C'
ag91
aS'C'
ag91
aS'G'
aS'C'
ag91
aS'G'
aS'C'
aS'C'
ag91
aS'C'
ag91
aS'G'
ag91
aS'G'
aS'C'
ag91
aS'C'
ag91
aS'C'
ag91
aS'G'
ag91
aS'G'
aS'C'
ag91
aS'C'
ag91
aS'G'
ag91
aS'G'
aS'C'
ag91
aS'C'
ag91
aS'G'
aS'C'
ag91
aS'G'
aS'C'
ag91
aS'C'
ag91
aS'C'
ag91
aS'C'
ag91
aS'C'
ag91
aS'G'
ag91
aS'G'
aS'C'
ag91
aS'C'
ag91
aS'C'
ag91
aS'G'
ag91
aS'G'
aS'C'
ag91
aS'C'
ag91
aS'G'
ag91
aS'G'
aS'C'
ag91
aS'C'
ag91
aS'G'
aS'C'
ag91
aS'G'
aS'C'
ag91
aS'C'
ag91
aS'C'
ag91
aS'C'
ag91
aS'G'
ag91
aS'G'
aS'C'
ag91
aS'C'
ag91
aS'C'
ag91
aS'C'
ag91
aS'C'
ag79
aS'G'
ag91
aS'G'
aS'C'
ag91
aS'C'
ag91
aS'G'
ag91
aS'G'
aS'C'
ag91
aS'C'
ag91
aS'G'
aS'C'
aS'C'
ag91
aS'G'
aS'C'
ag91
aS'C'
ag91
aS'C'
ag91
aS'C'
ag91
aS'C'
ag91
aS'C'
ag91
aS'G'
ag91
aS'G'
aS'C'
ag91
aS'C'
ag91
aS'C'
ag91
aS'C'
ag91
aS'C'
ag91
aS'C'
ag79
aS'G'
ag91
aS'G'
aS'C'
ag91
aS'C'
ag91
aS'G'
ag91
aS'G'
aS'C'
ag91
aS'C'
ag91
aS'G'
aS'C'
aa(lp212
S'C'
aS'C'
aS'C'
aS'C'
ag22
aS'C'
aS'C'
ag22
aS'C'
ag22
aS'C'
ag22
aS'C'
aS'C'
aS'C'
ag22
aS'C'
aS'C'
ag22
aS'C'
ag22
aS'C'
aS'C'
ag22
aS'C'
ag22
aS'C'
ag22
aS'C'
aS'C'
aS'C'
aS'C'
aS'C'
ag22
aS'C'
ag22
aS'C'
aS'C'
aS'C'
ag191
aS'C'
ag191
aS'C'
ag191
ag191
aS'C'
ag191
aS'C'
ag191
aS'C'
ag191
aS'C'
aa(lp213
S'C'
aS'F'
aS'C'
aS'F'
aS'C'
aS'F'
aS'C'
aS'C'
ag79
aS'F'
aS'G'
aS'C'
ag79
aS'F'
aS'G'
aS'C'
ag79
aS'G'
aS'C'
aS'F'
aS'C'
aS'F'
aS'C'
aS'F'
aS'C'
aS'F'
aS'C'
ag79
aS'F'
aS'G'
aS'C'
ag79
aS'F'
aS'G'
aS'C'
ag79
aS'G'
aS'C'
aS'F'
aS'F'
aS'G'
ag44
aS'G'
aS'C'
aS'F'
aS'C'
aS'F'
aS'C'
aS'F'
aS'C'
aS'F'
aS'C'
ag79
aS'F'
aS'G'
aS'C'
ag79
aS'F'
aS'G'
aS'C'
ag79
aS'G'
aS'C'
ag79
aS'G'
aS'C'
ag79
aS'G'
aS'C'
ag79
aS'G'
aa(lp214
S'C'
aS'F'
aS'C'
aS'F'
aS'C'
aS'G'
aS'F'
aS'C'
aS'F'
aS'C'
aS'F'
aS'C'
aS'G'
aS'F'
aS'C'
aS'F'
aS'C'
aS'F'
aS'C'
aS'G'
aS'F'
aS'C'
aS'C'
aS'F'
aS'C'
aS'F'
aS'C'
aS'G'
aS'F'
aS'C'
aa(lp215
S'C'
ag68
aS'C'
aS'F'
aS'C'
ag68
aS'C'
aS'F'
aS'G'
aS'C'
ag68
ag90
aS'C'
ag68
ag90
aS'C'
ag68
ag90
aS'F'
aS'C'
ag68
ag90
aS'F'
aS'C'
ag68
ag90
aS'F'
aS'C'
ag68
ag90
aS'F'
aS'C'
ag68
ag90
aS'F'
aS'C'
ag68
ag90
aS'F'
aS'C'
ag68
aS'C'
aS'F'
aS'C'
aS'G'
aS'C'
ag68
ag90
aS'F'
aS'C'
aS'F'
aS'C'
aS'G'
aS'C'
ag68
ag90
aS'C'
ag68
ag90
aS'F'
aS'C'
ag68
ag90
aS'F'
aS'C'
ag68
ag90
aS'F'
aS'C'
ag68
ag90
aS'F'
aS'C'
ag68
ag90
aS'F'
aS'C'
ag68
ag90
aS'F'
aS'C'
ag68
ag90
aS'F'
aS'C'
ag68
ag90
aS'F'
aS'C'
ag68
ag90
aS'F'
aS'C'
ag68
ag90
aS'F'
aS'C'
ag68
ag90
aS'F'
aS'C'
ag68
ag90
aS'C'
aS'F'
aS'C'
aS'G'
aS'C'
ag68
ag90
aS'F'
aS'C'
aS'F'
aS'C'
aS'C'
ag68
ag90
aS'F'
aS'C'
aS'F'
aS'C'
aS'G'
aS'C'
ag68
ag90
aS'F'
aS'C'
aS'F'
aa(lp216
S'C'
ag26
aS'C'
ag26
aS'C'
aS'F'
ag63
aS'C'
ag26
aS'C'
ag26
aS'C'
aS'F'
ag63
aS'C'
ag26
aS'C'
ag26
aS'C'
aa(lp217
S'C'
aS'F'
aS'C'
aS'C'
aS'F'
aS'C'
aS'C'
aS'C'
aS'F'
aS'C'
aS'C'
aS'F'
aS'C'
aS'C'
aS'C'
aS'F'
aS'C'
aS'C'
aS'F'
aS'C'
aS'C'
aa(lp218
S'C'
ag68
ag72
aS'C'
ag68
ag72
aS'C'
ag68
ag72
aS'C'
ag68
ag72
aS'E'
ag22
aS'F'
ag22
aS'F'
aS'C'
ag68
ag72
aS'C'
ag8
aS'C'
ag68
ag72
aS'F'
aS'C'
ag68
ag72
aS'C'
ag8
aS'C'
ag68
ag72
aS'E'
ag22
aS'F'
ag90
aS'G'
aS'C'
ag8
aS'C'
ag68
ag72
aS'C'
ag8
aS'C'
ag68
ag72
aS'E'
ag22
aS'F'
ag90
aS'G'
ag22
aS'F'
ag90
aS'G'
ag22
aS'F'
ag90
aS'G'
aa(lp219
g90
aS'F'
ag90
aS'D'
aS'F'
aS'G'
aS'C'
ag90
aS'F'
aS'C'
ag90
aS'F'
aS'C'
ag90
aS'D'
aS'F'
aS'G'
ag90
aS'D'
aS'F'
aS'G'
aS'C'
ag90
aS'F'
aS'C'
ag90
aS'F'
aS'C'
ag90
aS'D'
aS'F'
aS'G'
ag90
aS'D'
aS'F'
aS'G'
aS'C'
ag90
aS'F'
aS'C'
ag90
aS'F'
aS'C'
ag90
aS'C'
ag90
aS'C'
aS'G'
aS'F'
aS'C'
ag90
aS'F'
aS'C'
ag90
aS'F'
aS'C'
ag90
aS'F'
aS'C'
ag90
aS'C'
ag90
aS'F'
aS'C'
ag90
aS'F'
aS'C'
ag90
aS'F'
aa(lp220
g63
aS'G'
ag63
aS'G'
ag63
ag22
ag31
ag22
ag63
ag22
ag31
ag22
aS'F'
ag63
aS'G'
ag63
aS'G'
ag63
ag22
ag31
ag22
ag63
ag22
ag31
ag22
aS'F'
ag63
aS'G'
ag63
aS'G'
ag63
ag22
ag31
ag22
ag63
ag22
ag31
ag22
aS'F'
ag63
aS'G'
ag63
aS'G'
ag63
ag22
ag31
ag22
ag63
ag22
ag31
ag22
aS'F'
ag63
aS'G'
ag63
aS'G'
ag63
ag22
ag31
ag22
ag63
ag22
ag31
ag22
aS'F'
ag63
aS'G'
ag63
aS'G'
ag63
aS'G'
ag63
aS'G'
ag63
aS'G'
ag63
aS'G'
ag63
aS'G'
ag63
aS'G'
ag63
aS'G'
ag63
aS'G'
ag63
aS'G'
ag63
aS'G'
ag63
aS'G'
ag63
aS'G'
aa(lp221
g6
ag63
aS'F'
ag63
ag6
ag64
aS'C'
ag6
ag63
aS'F'
ag63
ag6
ag64
aS'C'
ag6
aS'C'
aS'F'
ag63
ag6
ag64
aS'C'
ag6
ag63
aS'F'
ag63
ag6
ag64
aS'C'
ag6
aS'C'
aa(lp222
g57
ag22
ag63
ag57
ag22
ag63
aS'Am7'
p223
ag63
ag67
ag149
ag63
ag67
ag57
ag22
ag63
ag223
ag57
ag22
ag63
ag223
ag63
ag67
ag149
ag63
ag67
aS'C'
ag90
ag80
ag90
ag80
ag90
ag80
ag90
ag80
ag79
ag90
ag80
aS'C'
aS'C'
ag63
ag68
aS'A'
ag79
aS'A'
ag79
aS'B-'
p224
ag91
aS'Gm'
p225
aS'F'
aS'E'
aS'A'
ag63
ag68
aS'A'
ag79
aS'A'
ag79
ag54
ag224
ag91
ag225
aS'F'
aS'E'
aS'A'
ag63
ag68
aS'A'
ag79
aS'A'
ag79
ag54
ag224
ag91
ag225
aS'F'
aS'E'
ag90
aa(lp226
S'C'
ag72
ag62
aS'C'
ag72
ag62
aS'C'
ag72
ag62
aS'C'
ag47
ag29
ag62
aS'C'
ag72
ag62
aS'C'
ag72
ag62
aS'C'
ag72
ag62
aS'C'
ag47
ag29
ag62
aS'C'
ag72
ag62
aS'C'
ag72
ag62
aS'C'
ag72
ag62
aS'C'
ag47
ag29
ag62
aS'C'
ag72
ag62
aS'C'
ag72
ag62
aS'C'
ag72
ag62
aS'C'
ag47
ag29
ag62
aa(lp227
S'C'
aS'G'
ag90
aS'C'
aS'G'
ag90
aS'C'
ag90
aS'C'
aS'C'
aS'G'
ag90
aS'C'
aa(lp228
g63
ag31
ag63
ag31
ag63
ag31
ag63
ag31
ag63
ag31
ag63
ag31
aS'F'
ag63
ag63
ag31
ag63
ag31
ag63
ag31
aS'F'
ag63
aa(lp229
S'C'
ag90
aS'G'
aS'C'
ag90
ag6
aS'C'
aS'F'
ag90
aS'G'
aS'C'
aS'G'
aS'F'
aS'C'
ag6
aS'C'
aS'F'
ag90
aS'G'
aS'C'
aS'G'
aS'F'
aS'C'
ag90
ag6
aS'C'
aS'F'
aS'C'
ag90
aS'G'
aS'C'
ag90
aS'G'
aS'F'
aS'C'
ag90
aS'G'
aS'C'
ag90
aS'G'
aS'F'
aa(lp230
S'C'
ag90
aS'F'
ag34
aS'C'
ag90
aS'F'
ag34
aS'G'
aS'C'
ag90
aS'F'
ag34
ag79
aS'C'
ag90
aS'F'
ag34
aS'G'
aS'F'
aS'G'
aS'C'
aS'F'
aS'G'
aS'F'
aS'G'
aS'C'
aS'F'
aS'G'
aS'C'
aS'G'
aS'C'
ag90
aS'F'
ag34
ag79
aS'C'
ag90
aS'F'
ag34
aS'G'
aS'C'
ag90
aS'F'
ag34
ag79
aS'C'
ag90
aS'F'
ag34
aS'G'
aS'F'
aS'G'
aS'C'
aS'F'
aS'G'
aS'F'
aS'G'
aS'C'
aS'F'
aS'G'
aS'C'
aS'F'
aS'G'
aS'C'
aS'G'
aS'C'
ag90
aS'F'
ag34
ag79
aS'C'
ag90
aS'F'
ag34
aS'G'
aS'C'
ag90
aS'F'
ag34
ag79
aS'C'
ag90
aS'F'
ag34
aS'G'
aS'F'
aS'G'
aS'C'
aS'F'
aS'G'
aS'F'
aS'G'
aS'C'
aS'F'
aS'G'
aS'F'
aS'G'
ag90
aS'F'
aS'G'
aS'C'
aS'G'
aS'C'
aa(lp231
S'G'
aS'F'
aS'G'
aS'F'
aS'G'
aS'F'
ag171
aS'F'
ag171
aS'F'
aS'G'
aS'F'
aS'G'
aS'F'
aS'G'
aS'F'
ag171
aS'F'
ag171
aS'G'
aS'F'
aS'G'
aS'F'
aS'G'
aS'F'
ag171
aS'F'
ag171
aS'G'
aS'F'
aS'G'
aS'F'
aS'G'
aS'F'
ag171
aS'F'
ag171
ag171
aS'F'
ag171
aS'F'
ag171
aS'F'
ag171
aS'F'
ag171
aS'F'
ag171
aS'F'
ag171
aS'F'
ag171
aS'F'
aa(lp232
S'C'
aS'F'
aS'C'
aS'C'
aS'G'
aS'C'
aS'C'
aS'F'
aS'C'
aS'G'
aS'C'
aS'G'
aS'F'
aS'C'
aS'G'
aS'F'
aS'C'
aS'G'
aS'C'
aS'G'
aS'C'
aS'G'
aS'F'
aS'C'
aS'G'
aS'F'
aS'C'
aS'G'
aS'C'
aS'G'
aS'C'
aS'F'
aS'C'
aS'C'
aS'G'
aS'C'
aS'C'
aS'F'
aS'C'
aS'C'
aS'G'
aS'C'
aS'G'
aS'F'
aS'C'
aS'G'
aS'F'
aS'C'
aS'G'
aS'C'
aS'G'
aS'C'
aS'G'
aS'F'
aS'C'
aS'G'
aS'F'
aS'C'
aS'G'
aS'C'
aS'G'
aS'C'
aS'G'
aS'C'
aS'G'
aS'C'
aS'G'
aS'C'
aS'G'
aS'C'
aS'G'
aa(lp233
S'C'
aS'F'
aS'C'
aS'F'
aS'C'
aS'G'
aS'C'
aS'G'
aS'C'
aS'G'
aS'C'
ag22
aS'C'
ag22
aS'C'
aS'F'
aS'C'
aS'F'
aS'C'
aS'G'
aS'C'
aS'G'
aS'C'
aS'G'
aS'C'
ag22
aS'C'
ag22
aS'C'
ag22
aS'C'
ag22
aS'C'
aS'C'
ag22
aS'C'
aS'F'
ag31
aS'F'
aS'C'
ag22
aS'C'
ag22
aS'C'
ag22
aS'C'
aa(lp234
g171
aS'F'
aS'C'
aS'G'
aS'C'
aS'G'
aS'C'
ag6
aS'C'
aS'F'
aS'G'
aS'C'
aS'F'
aS'C'
aS'G'
aS'C'
aS'G'
aS'C'
ag6
aS'C'
aS'F'
aS'G'
aS'C'
aS'F'
aS'C'
aS'G'
aS'C'
aS'G'
aS'C'
ag6
aS'C'
aS'F'
aS'G'
aS'C'
aS'F'
aS'C'
aS'G'
aS'C'
aS'G'
aS'C'
ag6
aS'C'
aS'F'
aS'G'
aS'C'
aS'F'
aS'C'
aS'G'
aS'C'
aS'G'
aa(lp235
S'C'
aS'G'
aS'C'
ag64
aS'C'
ag6
aS'C'
ag64
aS'C'
ag6
aS'C'
ag64
aS'C'
ag6
aS'C'
ag64
aS'C'
ag6
aS'C'
ag64
aS'C'
ag6
aS'C'
aa(lp236
g80
ag63
ag80
ag63
ag80
ag63
ag80
ag63
ag80
ag63
ag22
ag80
ag63
ag22
ag80
ag63
ag22
ag80
ag63
ag22
ag80
aS'C'
aS'G'
aS'C'
aS'G'
aS'C'
aS'G'
aS'C'
aS'G'
ag80
ag63
ag80
ag63
ag80
ag63
ag80
ag63
ag80
ag63
ag22
ag80
ag63
ag22
ag80
ag63
ag22
ag80
ag63
ag22
ag80
aS'C'
aS'G'
aS'C'
aS'G'
aS'C'
aS'G'
aS'C'
aS'G'
ag80
ag63
ag80
ag63
ag80
ag63
ag22
ag80
ag80
ag63
ag22
ag80
ag63
ag22
ag80
ag63
ag22
ag80
ag63
ag22
ag80
aS'C'
aS'G'
aS'C'
aS'G'
aS'C'
aS'G'
aS'C'
aS'G'
aS'F'
aa(lp237
S'C'
aS'F'
aS'C'
aS'F'
aS'C'
aS'G'
aS'F'
aS'C'
aS'F'
aS'C'
aS'F'
aS'C'
aS'G'
aS'F'
aS'C'
aS'F'
aS'C'
aS'F'
aS'C'
aS'G'
aS'F'
aS'C'
aS'F'
aS'C'
aS'G'
aS'C'
aS'C'
aS'F'
aS'C'
aS'F'
aS'C'
aS'G'
aS'F'
aS'C'
aS'F'
aS'C'
aS'F'
aS'C'
aS'G'
aS'F'
aS'C'
aS'F'
aS'C'
aS'G'
aS'C'
aa(lp238
S'C'
aS'F'
aS'C'
aS'F'
aS'C'
aS'G'
aS'C'
aS'F'
aS'C'
aS'F'
aS'C'
aS'F'
aS'C'
aS'F'
aS'C'
aS'F'
aS'C'
aS'F'
aS'C'
aS'F'
aS'C'
aS'F'
aS'C'
aS'F'
aS'C'
aS'F'
aS'C'
aS'C'
aS'F'
aS'C'
aS'F'
aS'C'
aS'G'
aS'C'
aS'F'
aS'C'
aS'F'
aS'C'
aS'F'
aS'C'
aS'F'
aS'C'
aS'F'
aS'C'
aS'F'
aS'C'
aS'F'
aS'C'
aS'F'
aS'C'
aS'F'
aS'C'
aS'F'
aS'C'
aS'C'
aS'F'
aS'C'
aS'F'
aS'C'
aS'G'
aS'C'
aS'F'
aS'C'
aS'F'
aS'C'
aS'F'
aS'C'
aS'F'
aS'C'
aS'F'
aS'C'
aS'F'
aS'C'
aS'F'
aS'C'
aS'F'
aS'C'
aS'F'
aS'C'
aS'F'
aS'C'
aS'F'
aS'C'
aS'F'
aS'C'
aS'F'
aS'C'
aS'F'
aS'C'
aS'F'
aS'C'
aS'F'
aS'C'
aS'F'
aS'C'
aS'F'
aS'C'
aS'F'
aa(lp239
S'C'
aS'G'
aS'F'
ag79
aS'C'
aS'G'
aS'F'
ag79
aS'C'
aS'G'
aS'F'
aS'C'
aS'G'
aS'F'
aS'C'
aS'G'
aS'F'
ag79
aS'C'
aS'G'
aS'F'
ag79
aS'C'
aS'G'
aS'F'
aS'C'
aS'G'
aS'F'
aS'C'
aS'G'
aS'C'
aS'G'
aS'F'
ag79
aS'C'
aS'G'
aS'F'
ag79
aS'C'
aS'G'
aS'F'
aS'C'
aS'G'
aS'F'
aS'C'
aS'G'
aS'F'
aS'C'
aa(lp240
S'C'
ag64
aS'C'
ag6
ag64
aS'C'
ag64
aS'C'
ag6
ag64
aS'C'
ag64
aS'C'
ag6
ag64
aS'C'
ag64
aS'C'
ag6
ag64
aS'C'
aS'C'
ag64
aS'C'
ag6
ag64
aS'C'
ag64
aS'C'
ag6
ag64
aS'C'
ag64
aS'C'
ag6
ag64
aS'C'
ag64
aS'C'
ag6
ag64
aS'C'
aa(lp241
S'C'
aS'C'
aS'C'
aS'F'
aS'F'
aS'C'
aS'C'
aS'G'
aS'C'
aS'C'
aS'C'
aS'C'
aS'F'
aS'F'
aS'C'
aS'C'
aS'G'
aS'C'
aS'C'
aS'C'
aS'C'
aS'F'
aS'F'
aS'C'
aS'C'
aS'G'
aS'C'
aS'C'
aS'C'
aS'F'
aS'F'
aS'C'
aS'C'
aS'G'
aS'C'
aS'C'
aS'C'
aS'C'
aS'F'
aS'F'
aS'C'
aS'C'
aS'G'
aS'C'
aS'C'
aS'C'
aS'F'
aS'F'
aS'C'
aS'C'
aS'G'
aS'C'
aS'F'
aS'C'
aa(lp242
g63
aS'F'
ag31
ag80
ag63
aS'F'
ag31
ag80
ag63
aS'F'
ag31
ag80
ag63
aS'F'
ag31
ag80
ag63
aS'F'
ag31
ag80
ag63
aS'F'
ag31
ag80
ag63
aS'F'
ag31
ag80
ag63
aS'F'
ag31
ag80
ag63
aS'F'
ag31
ag80
ag63
aS'F'
ag31
ag80
ag63
aS'F'
ag31
ag80
ag63
aS'F'
ag31
ag80
ag63
aS'F'
ag31
ag80
ag63
aS'F'
ag31
ag80
ag63
aS'F'
ag31
ag80
ag63
aS'F'
ag31
ag80
ag63
aS'F'
ag31
ag80
ag63
aS'F'
ag31
ag80
ag63
aS'F'
ag31
ag80
ag63
aS'F'
ag31
ag80
ag63
aS'F'
ag31
ag80
ag63
aS'F'
ag31
ag80
ag63
aS'F'
ag31
ag80
ag63
aS'F'
ag31
ag80
ag63
aS'F'
ag31
ag80
ag63
aS'F'
ag31
ag80
ag63
aS'F'
ag31
ag80
ag63
aS'F'
ag31
ag80
ag63
aS'F'
ag31
ag80
ag63
aS'F'
ag31
ag80
ag63
aS'F'
ag31
ag80
ag63
aS'F'
ag31
ag80
ag63
aS'F'
ag31
ag80
ag63
aS'F'
ag31
ag80
ag63
aS'F'
ag31
ag80
ag63
aS'F'
ag31
ag80
ag63
aS'F'
ag31
ag80
ag63
aS'F'
ag31
ag80
ag63
aS'F'
ag31
ag80
ag63
aS'F'
ag31
ag80
ag63
aS'F'
ag31
ag80
ag63
aS'F'
ag31
ag80
ag63
aS'F'
ag31
ag80
ag63
aS'F'
ag31
ag80
ag63
aS'F'
ag31
ag80
ag63
aS'F'
ag31
ag80
ag63
aa(lp243
S'A-7'
p244
ag63
ag68
ag27
ag91
ag244
ag22
ag63
ag68
ag27
ag91
ag244
ag22
ag63
ag31
aS'F'
ag244
ag63
ag31
ag22
aS'F'
ag31
aS'F'
ag244
ag63
ag31
aS'F'
ag244
ag63
ag68
ag27
ag91
ag244
ag22
ag63
aS'F'
ag17
ag17
aS'F'
ag17
aS'F'
ag31
ag15
ag63
ag31
ag15
ag80
ag63
ag31
ag15
ag63
ag31
ag15
ag80
ag17
aS'F'
ag17
aS'F'
aS'F'
ag31
ag15
ag63
ag31
ag15
ag80
ag63
ag31
ag15
ag63
ag31
ag15
ag80
aS'F'
ag31
ag15
ag63
ag31
ag15
ag80
ag31
ag15
ag63
ag31
ag15
ag80
aS'F'
ag17
aS'F'
ag31
ag15
ag63
ag31
ag15
ag80
ag31
ag15
ag63
ag31
ag15
ag80
ag63
ag15
aS'F'
ag63
ag22
ag63
ag22
ag80
ag63
ag22
ag80
ag63
ag22
ag80
ag63
ag22
ag80
ag63
ag22
ag80
ag63
ag22
ag80
ag63
ag22
ag80
ag63
ag22
ag80
ag80
ag63
aa(lp245
S'C'
ag90
aS'F'
aS'G'
aS'C'
ag90
aS'F'
aS'G'
aS'C'
ag90
aS'F'
aS'G'
aS'C'
ag90
aS'F'
aS'G'
aS'C'
ag90
aS'F'
aS'G'
aS'C'
ag90
aS'F'
aS'G'
aS'C'
aS'C'
ag90
aS'F'
aS'G'
aS'C'
aa(lp246
S'C'
ag26
ag149
aS'F'
aS'A'
aS'F'
aS'C'
aS'G'
ag90
ag50
aS'F'
aS'G'
aS'C'
ag90
aS'F'
aS'G'
aS'F'
aS'C'
ag26
ag149
aS'F'
aS'A'
aS'F'
aS'C'
aS'G'
ag90
ag50
aS'F'
aS'G'
aS'C'
ag90
aS'F'
aS'G'
aS'F'
aS'C'
ag26
ag149
aS'F'
aS'A'
aS'F'
aS'C'
aS'G'
ag90
ag50
aS'F'
aS'G'
aS'C'
ag90
aS'F'
aS'G'
aS'F'
aS'C'
ag26
ag149
aS'F'
aS'A'
aS'F'
aS'C'
aS'F'
aS'C'
aS'F'
aS'G'
aS'F'
aa(lp247
S'C'
aS'G'
aS'F'
aS'C'
aS'G'
aS'F'
aS'C'
aS'G'
aS'F'
aS'C'
aS'G'
aS'F'
aS'C'
aS'G'
aS'F'
aS'C'
aS'G'
aS'F'
aS'C'
aS'G'
aS'F'
aS'C'
aS'G'
aS'F'
aS'C'
aS'C'
aS'G'
aS'F'
aS'C'
aS'G'
aS'F'
aS'C'
aS'G'
aS'F'
aS'C'
aS'G'
aS'F'
aS'F'
aS'C'
aS'G'
aS'F'
aS'C'
aS'G'
aS'F'
aS'C'
aS'G'
aS'F'
aS'C'
aS'G'
aS'F'
aS'C'
aS'C'
aS'C'
aS'C'
aa(lp248
S'C'
aS'C'
aS'C'
aS'F'
aS'C'
aS'F'
aS'C'
aS'C'
aS'C'
aS'C'
aS'F'
aS'C'
aS'F'
aS'C'
aS'C'
aS'C'
aS'C'
aS'F'
aS'C'
aS'F'
aS'C'
aas.