(dp1
VV6/5/III_0
p2
S'B7/D#'
p3
sVii/o6/5_-2
p4
S'C/o7/Eb'
p5
sVV6/III_-4
p6
S'G/B'
p7
sVV4/3/V_-11
p8
S'Eb7/Bb'
p9
sVV4/3_0
p10
S'G7/D'
p11
sVV6/5/iv_-8
p12
S'E7/G#'
p13
sVvi7_-4
p14
S'Fm7'
p15
sVV/ii_-6
p16
S'D#'
p17
sViii6_0
p18
S'Em/G'
p19
sVV/ii_-7
p20
S'D'
sVIV6_0
p21
S'F/A'
p22
sVviio4/3_-4
p23
S'Go7/Db'
p24
sVV7_0
p25
S'G7'
p26
sVV/ii_-4
p27
S'F'
sVV/ii_-5
p28
S'E'
sVV6/5/iv_-9
p29
S'Eb7/G'
p30
sVV4/3/V_-8
p31
S'F#7/C#'
p32
sVIV6/5_0
p33
S'Fmaj7/A'
p34
sVV4/3/V_-9
p35
S'F7/C'
p36
sVii_0
p37
S'Dm'
p38
sVIII6_-11
p39
S'F/A'
p40
sVIV2_-11
p41
S'Gbmaj7/F'
p42
sVVI6_-3
p43
S'F#/A#'
p44
sVviio6/V_-1
p45
S'Fdim/Ab'
p46
sVii7/V_-10
p47
S'Bm7'
p48
sVv2_-5
p49
S'Dm7/C'
p50
sVv2_-4
p51
S'Ebm7/Db'
p52
sVVI6_0
p53
S'A/C#'
p54
sVv2_-7
p55
S'Cm7/Bb'
p56
sViio_-11
p57
S'Ebdim'
p58
sViio_-10
p59
S'Edim'
p60
sViv_-8
p61
S'Am'
p62
sViv_-9
p63
S'Abm'
p64
sVIII+6/5_-10
p65
S'F#7+/A#'
p66
sVIII+6/5_-11
p67
S'F7+/A'
p68
sViv_-2
p69
S'Ebm'
p70
sViv_-3
p71
S'Dm'
p72
sViv_-1
p73
S'Em'
p74
sVI6_0
p75
S'C/E'
p76
sViv_-7
p77
S'Bbm'
p78
sViv_-4
p79
S'Dbm'
p80
sViv_-5
p81
S'Cm'
p82
sVV4/3/vi_-6
p83
S'A#7/F'
p84
sVvi7_-7
p85
S'Dm7'
p86
sVV4/3/vi_-7
p87
S'A7/E'
p88
sVV4/3/V_-4
p89
S'Bb7/F'
p90
sViv7_-1
p91
S'EmM7'
p92
sVV6/5/III_-6
p93
S'F7/A'
p94
sVV4/3/V_-5
p95
S'A7/E'
p96
sVviio_-10
p97
S'C#dim'
p98
sVviio_-11
p99
S'Cdim'
p100
sVviio6/V_0
p101
S'F#dim/A'
p102
sVV6/III_0
p103
S'B/D#'
p104
sVvii/o2_-9
p105
S'D/o7/C'
p106
sVV4/3/V_-10
p107
S'E7/B'
p108
sVV4/3/vi_-3
p109
S'C#7/G#'
p110
sVV6/5/vi_-8
p111
S'Ab7/C'
p112
sVV6/5/vi_-9
p113
S'G7/B'
p114
sVV6/5/vi_-6
p115
S'Bb7/D'
p116
sVV6/5/vi_-7
p117
S'A7/C#'
p118
sVvi_-10
p119
S'Bm'
p120
sVvi_-11
p121
S'Bbm'
p122
sVI6_-10
p123
S'D/F#'
p124
sVI6_-11
p125
S'Db/F'
p126
sVV6/5/vi_-1
p127
S'Eb7/G'
p128
sVvii/o2_-5
p129
S'F#/o7/E'
p130
sVV6/5/V_-10
p131
S'E7/G#'
p132
sVV6/5/V_-11
p133
S'Eb7/G'
p134
sVv_-11
p135
S'Abm'
p136
sVvii/o2_-7
p137
S'E/o7/D'
p138
sVii6/5_-10
p139
S'Em7/G'
p140
sVii6/5_-11
p141
S'Ebm7/Gb'
p142
sVvii/o2_-1
p143
S'A#/o7/G#'
p144
sVviio7_0
p145
S'Bo7'
p146
sVvi6/V_-11
p147
S'Fm/Ab'
p148
sVv2_-11
p149
S'Abm7/Gb'
p150
sVV6/5/V_-1
p151
S'C#7/F'
p152
sVV6/5/V_-2
p153
S'C7/E'
p154
sVV6/5/V_-3
p155
S'B7/D#'
p156
sVV6/5/V_-4
p157
S'Bb7/D'
p158
sViio6_-6
p159
S'G#dim/B'
p160
sVV6/5/V_-6
p161
S'Ab7/C'
p162
sVV6/5/V_-7
p163
S'G7/B'
p164
sVV6/5/V_-8
p165
S'F#7/A#'
p166
sVV6/5/V_-9
p167
S'F7/A'
p168
sVV4/3/vi_-9
p169
S'G7/D'
p170
sVIII_0
p171
S'E'
sS'bVI7_-11'
p172
S'Bbb7'
p173
sVviio4/3_-7
p174
S'Eo7/Bb'
p175
sVviio6/IV_-11
p176
S'Fdim/Ab'
p177
sVVII6_0
p178
S'B/D#'
p179
sVviio6_-11
p180
S'Cdim/Eb'
p181
sVviio6_-10
p182
S'C#dim/E'
p183
sVVI6_-11
p184
S'Bb/D'
p185
sVVI6_-10
p186
S'B/D#'
p187
sVvii/o2_-3
p188
S'G#/o7/F#'
p189
sVIV6/5_-11
p190
S'Gbmaj7/Bb'
p191
sVviio6/4_-10
p192
S'C#dim/G'
p193
sVviio6/4_-11
p194
S'Cdim/Gb'
p195
sViio_0
p196
S'Ddim'
p197
sVIV6/5_-10
p198
S'Gmaj7/B'
p199
sVV7_-6
p200
S'C#7'
p201
sVv6_0
p202
S'Gm/Bb'
p203
sVvii/o2_-2
p204
S'A/o7/G'
p205
sVV7/V_-9
p206
S'F7'
p207
sVV7/V_-8
p208
S'F#7'
p209
sVVII6_-3
p210
S'Ab/C'
p211
sVVII6_-2
p212
S'A/C#'
p213
sVvi6/5_-11
p214
S'Bbm7/Db'
p215
sVvi6/5_-10
p216
S'Bm7/D'
p217
sVVII6_-7
p218
S'E/G#'
p219
sVVII6_-6
p220
S'F/A'
p221
sVV7/V_-1
p222
S'C#7'
p223
sVi6_0
p224
S'Cm/Eb'
p225
sVV7/V_-3
p226
S'B7'
p227
sVV7_-7
p228
S'C7'
p229
sVV7/V_-5
p230
S'A7'
p231
sVV7/V_-4
p232
S'Bb7'
p233
sVV7/V_-7
p234
S'G7'
p235
sVV7/V_-6
p236
S'G#7'
p237
sVvi_-1
p238
S'G#m'
p239
sVV4/3_-9
p240
S'Bb7/F'
p241
sViii_0
p242
S'Em'
p243
sVvi_-4
p244
S'Fm'
p245
sVvi_-5
p246
S'Em'
p247
sVvi_-6
p248
S'D#m'
p249
sVvi_-7
p250
S'Dm'
p251
sVvi_-8
p252
S'C#m'
p253
sVV4/3_-2
p254
S'F7/C'
p255
sVV4/3_-1
p256
S'F#7/C#'
p257
sVvii/o4/3_-10
p258
S'C#/o7/G'
p259
sVV4/3_-7
p260
S'C7/G'
p261
sVV4/3_-6
p262
S'C#7/G#'
p263
sVV4/3_-5
p264
S'D7/A'
p265
sVV4/3_-4
p266
S'Eb7/Bb'
p267
sViio_-5
p268
S'Adim'
p269
sViio_-4
p270
S'Bbdim'
p271
sViio_-7
p272
S'Gdim'
p273
sViio_-6
p274
S'G#dim'
p275
sViio_-1
p276
S'C#dim'
p277
sVviio6_0
p278
S'Bdim/D'
p279
sViio_-3
p280
S'Bdim'
p281
sViio_-2
p282
S'Cdim'
p283
sVviio6/IV_-10
p284
S'F#dim/A'
p285
sViio_-9
p286
S'Fdim'
p287
sViio_-8
p288
S'F#dim'
p289
sVI_-7
p290
S'F'
sVI_-6
p291
S'F#'
p292
sVI_-5
p293
S'G'
sVI_-4
p294
S'Ab'
p295
sVI_-3
p296
S'A'
sVI_-2
p297
S'Bb'
p298
sVI_-1
p299
S'B'
sVii/o6/5_-3
p300
S'B/o7/D'
p301
sVV/ii_-2
p302
S'G'
sVV/ii_-3
p303
S'F#'
p304
sVV/ii_-1
p305
S'G#'
p306
sVii/o6/5_-8
p307
S'F#/o7/A'
p308
sVii/o6/5_-9
p309
S'F/o7/Ab'
p310
sVI_-9
p311
S'Eb'
p312
sVI_-8
p313
S'E'
sVviio7_-10
p314
S'C#o7'
p315
sVviio7_-11
p316
S'Co7'
p317
sVV6/III_-10
p318
S'C#/F'
p319
sViii_-11
p320
S'Fm'
p321
sViii_-10
p322
S'F#m'
p323
sVvii/o7/V_-11
p324
S'G/o7'
p325
sVvii/o7/V_-10
p326
S'G#/o7'
p327
sVIV6/5_-3
p328
S'Dmaj7/F#'
p329
sVIV6/5_-2
p330
S'Ebmaj7/G'
p331
sVIV6/5_-1
p332
S'Emaj7/G#'
p333
sVIV6/5_-7
p334
S'Bbmaj7/D'
p335
sVIV6/5_-6
p336
S'Bmaj7/D#'
p337
sVIV6/5_-5
p338
S'Cmaj7/E'
p339
sVIV6/5_-4
p340
S'Dbmaj7/F'
p341
sViv7_0
p342
S'FmM7'
p343
sVv2_0
p344
S'Gm7/F'
p345
sVIV6/5_-9
p346
S'Abmaj7/C'
p347
sVIV6/5_-8
p348
S'Amaj7/C#'
p349
sVviio4/3_-6
p350
S'Fo7/B'
p351
sVV6/5_-3
p352
S'E7/G#'
p353
sVV6/5_-2
p354
S'F7/A'
p355
sVV6/5_-1
p356
S'F#7/A#'
p357
sVV6/5_-7
p358
S'C7/E'
p359
sVV6/5_-6
p360
S'C#7/F'
p361
sVV6/5_-5
p362
S'D7/F#'
p363
sVV6/5_-4
p364
S'Eb7/G'
p365
sVV/V_-7
p366
S'G'
sVvi_-3
p367
S'F#m'
p368
sVV6/5_-9
p369
S'Bb7/D'
p370
sVV6/5_-8
p371
S'B7/D#'
p372
sVvii/o4/3_-6
p373
S'F/o7/B'
p374
sVvii/o4/3_-5
p375
S'F#/o7/C'
p376
sVV2_0
p377
S'G7/F'
p378
sVvii/o4/3_-4
p379
S'G/o7/Db'
p380
sVv7_-7
p381
S'Cm7'
p382
sVV6/4/ii_-1
p383
S'G#/D#'
p384
sVV6/4/ii_-2
p385
S'G/D'
p386
sVV6/4/ii_-3
p387
S'F#/C#'
p388
sVV6/4/ii_-4
p389
S'F/C'
p390
sVV6/4/ii_-5
p391
S'E/B'
p392
sVV6/4/ii_-6
p393
S'D#/A#'
p394
sVV6/4/ii_-7
p395
S'D/A'
p396
sVV6/4/ii_-8
p397
S'C#/G#'
p398
sVV6/4/ii_-9
p399
S'C/G'
p400
sVV6/iv_0
p401
S'C/E'
p402
sVviio6/V_-7
p403
S'Bdim/D'
p404
sVv_-8
p405
S'Bm'
p406
sVv_-9
p407
S'Bbm'
p408
sVviio6/V_-2
p409
S'Edim/G'
p410
sVviio6/V_-3
p411
S'D#dim/F#'
p412
sVi6/4_-11
p413
S'Dbm/Ab'
p414
sVi6/4_-10
p415
S'Dm/A'
p416
sVIV7_0
p417
S'Fmaj7'
p418
sVv_-3
p419
S'Em'
p420
sVVII_-4
p421
S'G'
sVv_-1
p422
S'F#m'
p423
sVv_-6
p424
S'C#m'
p425
sVV6_0
p426
S'G/B'
p427
sVv_-4
p428
S'Ebm'
p429
sVv_-5
p430
S'Dm'
p431
sVvi/o7_-10
p432
S'B/o7'
p433
sVvi/o7_-11
p434
S'Bb/o7'
p435
sViii6_-10
p436
S'F#m/A'
p437
sViii6_-11
p438
S'Fm/Ab'
p439
sVii7/V_0
p440
S'Am7'
p441
sVii4/3_0
p442
S'Dm7/A'
p443
sVV/vi_-11
p444
S'F'
sVV/vi_-10
p445
S'F#'
p446
sVV6/5/III_-11
p447
S'C7/E'
p448
sVV6/5/III_-10
p449
S'C#7/F'
p450
sVi_0
p451
S'Cm'
p452
sVviio6_-5
p453
S'F#dim/A'
p454
sVviio6_-4
p455
S'Gdim/Bb'
p456
sVviio6_-7
p457
S'Edim/G'
p458
sVviio6_-6
p459
S'Fdim/Ab'
p460
sVviio7/V_-1
p461
S'Fo7'
p462
sVvi/o7_-5
p463
S'E/o7'
p464
sVviio6_-3
p465
S'G#dim/B'
p466
sVviio7/V_-2
p467
S'Eo7'
p468
sVvi/o7_-8
p469
S'C#/o7'
p470
sVviio6/V_-9
p471
S'Adim/C'
p472
sVviio6_-9
p473
S'Ddim/F'
p474
sVviio6_-8
p475
S'D#dim/F#'
p476
sVV4/3/vi_-1
p477
S'D#7/A#'
p478
sVV6/III_-3
p479
S'Ab/C'
p480
sVV2/iv_-2
p481
S'Bb7/Ab'
p482
sVV2/iv_-3
p483
S'A7/G'
p484
sVv_-7
p485
S'Cm'
p486
sVI6_-9
p487
S'Eb/G'
p488
sVV2/iv_-6
p489
S'F#7/E'
p490
sVV2/iv_-7
p491
S'F7/Eb'
p492
sVV2/iv_-4
p493
S'Ab7/Gb'
p494
sVV2/iv_-5
p495
S'G7/F'
p496
sVV2/iv_-8
p497
S'E7/D'
p498
sVV2/iv_-9
p499
S'Eb7/Db'
p500
sVvio6_0
p501
S'Adim/C'
p502
sVV6/III_-2
p503
S'A/C#'
p504
sVV6/4_-8
p505
S'B/F#'
p506
sVV6/4_-9
p507
S'Bb/F'
p508
sVviio7/iv_-9
p509
S'Go7'
p510
sVviio7/iv_-8
p511
S'G#o7'
p512
sVV6/ii_-5
p513
S'E/G#'
p514
sVv7_-11
p515
S'Abm7'
p516
sVviio7/iv_-3
p517
S'C#o7'
p518
sVV6/4_-1
p519
S'F#/C#'
p520
sVV6/4_-2
p521
S'F/C'
p522
sVV6/4_-3
p523
S'E/B'
p524
sVV6/4_-4
p525
S'Eb/Bb'
p526
sVV6/4_-5
p527
S'D/A'
p528
sVV6/4_-6
p529
S'C#/G#'
p530
sVV6/4_-7
p531
S'C/G'
p532
sVV6/vi_-2
p533
S'D/F#'
p534
sVviio6/V_-6
p535
S'Cdim/D#'
p536
sVI6_-1
p537
S'B/D#'
p538
sVviio6/IV_-3
p539
S'C#dim/E'
p540
sVV6/III_-1
p541
S'Bb/D'
p542
sVV6/iv_-4
p543
S'Ab/C'
p544
sVV/vi_-5
p545
S'B'
sVviio7_-8
p546
S'D#o7'
p547
sVviio7_-9
p548
S'Do7'
p549
sVii/o4/3_-10
p550
S'E/o7/Bb'
p551
sVV/vi_-4
p552
S'C'
sVviio7_-2
p553
S'Ao7'
p554
sVviio7_-3
p555
S'G#o7'
p556
sVviio7_-1
p557
S'A#o7'
p558
sVviio7_-6
p559
S'Fo7'
p560
sVviio7_-7
p561
S'Eo7'
p562
sVviio7_-4
p563
S'Go7'
p564
sVviio7_-5
p565
S'F#o7'
p566
sVV4/3/V_0
p567
S'D7/A'
p568
sVv2_-1
p569
S'F#m7/E'
p570
sVV/V_-6
p571
S'G#'
p572
sVv_0
p573
S'Gm'
p574
sVVII_-8
p575
S'D#'
p576
sVii7/V_-11
p577
S'Bbm7'
p578
sVVII6_-11
p579
S'C/E'
p580
sVVII_-9
p581
S'D'
sVV6/III_-11
p582
S'C/E'
p583
sVv_-2
p584
S'Fm'
p585
sVviio7/IV_-9
p586
S'Go7'
p587
sVviio7/IV_-8
p588
S'G#o7'
p589
sVviio6/IV_0
p590
S'Edim/G'
p591
sVV/V_-3
p592
S'B'
sVVII_-7
p593
S'E'
sVviio7/IV_-3
p594
S'C#o7'
p595
sVviio7/IV_-2
p596
S'Do7'
p597
sVviio7/IV_-1
p598
S'D#o7'
p599
sVV/vi_-2
p600
S'D'
sVviio7/IV_-7
p601
S'Ao7'
p602
sVviio7/IV_-6
p603
S'A#o7'
p604
sVviio7/IV_-5
p605
S'Bo7'
p606
sVviio7/IV_-4
p607
S'Co7'
p608
sVV7/IV_-7
p609
S'F7'
p610
sVV7/IV_-6
p611
S'F#7'
p612
sVV7/IV_-5
p613
S'G7'
p614
sVV7/IV_-4
p615
S'Ab7'
p616
sVV7/IV_-3
p617
S'A7'
p618
sVV7/IV_-2
p619
S'Bb7'
p620
sVV7/IV_-1
p621
S'B7'
p622
sVV6/III_-7
p623
S'E/G#'
p624
sVVII_-2
p625
S'A'
sVVI_-10
p626
S'B'
sVVI_-11
p627
S'Bb'
p628
sVV/ii_-8
p629
S'C#'
p630
sVV7/IV_-9
p631
S'Eb7'
p632
sVV7/IV_-8
p633
S'E7'
p634
sVviio6/V_-8
p635
S'A#dim/C#'
p636
sVii4/3_-4
p637
S'Bbm7/F'
p638
sVVII_-1
p639
S'A#'
p640
sVI_0
p641
S'C'
sVV6/5/iv_-7
p642
S'F7/A'
p643
sVV6/III_-6
p644
S'F/A'
p645
sVviio6/IV_-4
p646
S'Cdim/Eb'
p647
sVV2/iv_-10
p648
S'D7/C'
p649
sVV2/iv_-11
p650
S'Db7/Cb'
p651
sVV/ii_-9
p652
S'C'
sVviio7/iv_-2
p653
S'Do7'
p654
sVV6/5/iv_-10
p655
S'D7/F#'
p656
sVV/ii_0
p657
S'A'
sVii4/3_-9
p658
S'Fm7/C'
p659
sVv7_-10
p660
S'Am7'
p661
sVV6/V_0
p662
S'D/F#'
p663
sVV6/III_-5
p664
S'F#/A#'
p665
sVviio6/IV_-5
p666
S'Bdim/D'
p667
sViii_-6
p668
S'A#m'
p669
sVIII+6/5_0
p670
S'E7+/G#'
p671
sVVI_-2
p672
S'G'
sVV6/5/iv_-11
p673
S'Db7/F'
p674
sVii_-7
p675
S'Gm'
p676
sVii_-6
p677
S'G#m'
p678
sVii_-5
p679
S'Am'
p680
sVii_-4
p681
S'Bbm'
p682
sVii_-3
p683
S'Bm'
p684
sVii_-2
p685
S'Cm'
p686
sVii_-1
p687
S'C#m'
p688
sS'bVI7_0'
p689
S'Ab7'
p690
sVVI_-4
p691
S'F'
sVii/o2_-10
p692
S'E/o7/D'
p693
sVii/o2_-11
p694
S'Eb/o7/Db'
p695
sVii_-9
p696
S'Fm'
p697
sVii_-8
p698
S'F#m'
p699
sViio6_-8
p700
S'F#dim/A'
p701
sViio6_-9
p702
S'Fdim/Ab'
p703
sVV4/3/vi_-4
p704
S'C7/G'
p705
sVV4/3/vi_-5
p706
S'B7/F#'
p707
sVV4/3/vi_-2
p708
S'D7/A'
p709
sVVI_-6
p710
S'D#'
p711
sS'bVII7_-11'
p712
S'Cb7'
p713
sS'bVII7_-10'
p714
S'C7'
p715
sVv_-10
p716
S'Am'
p717
sViio6_-1
p718
S'C#dim/E'
p719
sViio6_-2
p720
S'Cdim/Eb'
p721
sViio6_-3
p722
S'Bdim/D'
p723
sViio6_-4
p724
S'Bbdim/Db'
p725
sViio6_-5
p726
S'Adim/C'
p727
sVVI_0
p728
S'A'
sViio6_-7
p729
S'Gdim/Bb'
p730
sViv7_-10
p731
S'GmM7'
p732
sVii/o7_-9
p733
S'F/o7'
p734
sVIV_0
p735
S'F'
sVvii/o4/3_-11
p736
S'C/o7/Gb'
p737
sVii/o7_-8
p738
S'F#/o7'
p739
sVV6_-11
p740
S'Ab/C'
p741
sVV6_-10
p742
S'A/C#'
p743
sVvi7_0
p744
S'Am7'
p745
sVvii/o4/3_-8
p746
S'D#/o7/A'
p747
sVV_0
p748
S'G'
sVIV_-4
p749
S'Db'
p750
sVvii/o4/3_-3
p751
S'G#/o7/D'
p752
sViv_-6
p753
S'Bm'
p754
sVvii/o4/3_-1
p755
S'A#/o7/E'
p756
sVvii/o7_-10
p757
S'C#/o7'
p758
sVvii/o7_-11
p759
S'C/o7'
p760
sVii_-11
p761
S'Ebm'
p762
sVii_-10
p763
S'Em'
p764
sViv6_0
p765
S'Fm/Ab'
p766
sVii/o7_-4
p767
S'Bb/o7'
p768
sVV6/5/III_-2
p769
S'A7/C#'
p770
sVii/o7_-7
p771
S'G/o7'
p772
sVV6/5/III_-1
p773
S'Bb7/D'
p774
sVV6/5/III_-3
p775
S'Ab7/C'
p776
sVii/o7_-6
p777
S'G#/o7'
p778
sVV/vi_-9
p779
S'G'
sVV/vi_-8
p780
S'G#'
p781
sVV6/5/III_-7
p782
S'E7/G#'
p783
sVV6/4_0
p784
S'G/D'
p785
sVV2/IV_-10
p786
S'D7/C'
p787
sVV2/IV_-11
p788
S'Db7/Cb'
p789
sVV/vi_-7
p790
S'A'
sVV/vi_-6
p791
S'A#'
p792
sVV/vi_-1
p793
S'D#'
p794
sVVII6_-10
p795
S'C#/F'
p796
sVV/vi_-3
p797
S'C#'
p798
sVV2/iv_-1
p799
S'B7/A'
p800
sVii4/3_-1
p801
S'C#m7/G#'
p802
sVii4/3_-2
p803
S'Cm7/G'
p804
sVii4/3_-3
p805
S'Bm7/F#'
p806
sVvii/o7_0
p807
S'B/o7'
p808
sVVI_-5
p809
S'E'
sVV6/5/III_-5
p810
S'F#7/A#'
p811
sVii4/3_-7
p812
S'Gm7/D'
p813
sVii4/3_-8
p814
S'F#m7/C#'
p815
sVIV7_-10
p816
S'Gmaj7'
p817
sVii/o7_-2
p818
S'C/o7'
p819
sVIV7_-11
p820
S'Gbmaj7'
p821
sVviio6/VII_-10
p822
S'Cdim/D#'
p823
sVviio6/VII_-11
p824
S'Bdim/D'
p825
sVii/o6/5_-11
p826
S'Eb/o7/Gb'
p827
sVIII_-10
p828
S'F#'
p829
sVV/ii_-10
p830
S'B'
sVV/ii_-11
p831
S'Bb'
p832
sVviio6/V_-4
p833
S'Ddim/F'
p834
sS'bVI7_-3'
p835
S'F7'
p836
sS'bVI7_-2'
p837
S'Gb7'
p838
sS'bVI7_-1'
p839
S'G7'
p840
sVii7/V_-9
p841
S'Cm7'
p842
sVV6/5/III_-4
p843
S'G7/B'
p844
sS'bVI7_-6'
p845
S'D7'
p846
sS'bVI7_-5'
p847
S'Eb7'
p848
sS'bVI7_-4'
p849
S'Fb7'
p850
sS'bVI7_-7'
p851
S'Db7'
p852
sS'bVI7_-9'
p853
S'Cb7'
p854
sS'bVI7_-8'
p855
S'C7'
p856
sVviio4/3_-3
p857
S'G#o7/D'
p858
sVviio7/V_-5
p859
S'C#o7'
p860
sVviio4/3_-1
p861
S'A#o7/E'
p862
sVV6/iv_-5
p863
S'G/B'
p864
sVV6/iv_-2
p865
S'Bb/D'
p866
sVV6/iv_-3
p867
S'A/C#'
p868
sVviio4/3_-5
p869
S'F#o7/C'
p870
sVviio7/V_-4
p871
S'Do7'
p872
sVviio4/3_-9
p873
S'Do7/Ab'
p874
sVviio4/3_-8
p875
S'D#o7/A'
p876
sVviio7/V_-7
p877
S'Bo7'
p878
sVV6/iv_-8
p879
S'E/G#'
p880
sVV6/iv_-9
p881
S'Eb/G'
p882
sVvi7_-8
p883
S'C#m7'
p884
sVvi7_-9
p885
S'Cm7'
p886
sVV_-8
p887
S'B'
sVV_-9
p888
S'Bb'
p889
sVV7_-10
p890
S'A7'
p891
sVV7_-11
p892
S'Ab7'
p893
sVii7/V_-3
p894
S'F#m7'
p895
sVV_-2
p896
S'F'
sVV_-3
p897
S'E'
sVvi7_-2
p898
S'Gm7'
p899
sVV_-1
p900
S'F#'
p901
sVV_-6
p902
S'C#'
p903
sVV_-7
p904
S'C'
sVV_-4
p905
S'Eb'
p906
sVV_-5
p907
S'D'
sVI6/4_-3
p908
S'A/E'
p909
sVI6/4_-2
p910
S'Bb/F'
p911
sVI6/4_-1
p912
S'B/F#'
p913
sVV6/vi_-7
p914
S'A/C#'
p915
sVI6/4_-7
p916
S'F/C'
p917
sVI6/4_-6
p918
S'F#/C#'
p919
sVI6/4_-5
p920
S'G/D'
p921
sVI6/4_-4
p922
S'Ab/Eb'
p923
sVviio6/IV_-1
p924
S'D#dim/F#'
p925
sVI6/4_-9
p926
S'Eb/Bb'
p927
sVI6/4_-8
p928
S'E/B'
p929
sVV6/vi_-8
p930
S'Ab/C'
p931
sVV6/vi_-9
p932
S'G/B'
p933
sVv2_-10
p934
S'Am7/G'
p935
sVIII6_-2
p936
S'D/F#'
p937
sVIII6_-3
p938
S'C#/F'
p939
sVvii/o7_-8
p940
S'D#/o7'
p941
sVvii/o7_-9
p942
S'D/o7'
p943
sVV2/iv_0
p944
S'C7/Bb'
p945
sVIII6_-7
p946
S'A/C#'
p947
sVV6/5/V_0
p948
S'D7/F#'
p949
sVIII6_-5
p950
S'B/D#'
p951
sVvii/o7_-2
p952
S'A/o7'
p953
sVvii/o7_-3
p954
S'G#/o7'
p955
sVIII6_-8
p956
S'Ab/C'
p957
sVvii/o7_-1
p958
S'A#/o7'
p959
sVvii/o7_-6
p960
S'F/o7'
p961
sVvii/o7_-7
p962
S'E/o7'
p963
sVvii/o7_-4
p964
S'G/o7'
p965
sVvii/o7_-5
p966
S'F#/o7'
p967
sVV6/iv_-6
p968
S'F#/A#'
p969
sVii2_-8
p970
S'F#m7/E'
p971
sVii2_-9
p972
S'Fm7/Eb'
p973
sVviio4/3_-2
p974
S'Ao7/Eb'
p975
sVii2_-2
p976
S'Cm7/Bb'
p977
sVii2_-3
p978
S'Bm7/A'
p979
sVii2_-1
p980
S'C#m7/B'
p981
sVii2_-6
p982
S'G#m7/F#'
p983
sVii2_-7
p984
S'Gm7/F'
p985
sVii2_-4
p986
S'Bbm7/Ab'
p987
sVii2_-5
p988
S'Am7/G'
p989
sVV7/V_0
p990
S'D7'
p991
sVii7_-9
p992
S'Fm7'
p993
sVii7_-8
p994
S'F#m7'
p995
sVVI6_-9
p996
S'C/E'
p997
sVVI6_-8
p998
S'C#/F'
p999
sVii7_-5
p1000
S'Am7'
p1001
sVii7_-4
p1002
S'Bbm7'
p1003
sVii7_-7
p1004
S'Gm7'
p1005
sVii7_-6
p1006
S'G#m7'
p1007
sVii7_-1
p1008
S'C#m7'
p1009
sVVI6_-2
p1010
S'G/B'
p1011
sVii7_-3
p1012
S'Bm7'
p1013
sVii7_-2
p1014
S'Cm7'
p1015
sVv2_-6
p1016
S'C#m7/B'
p1017
sVV7_-2
p1018
S'F7'
p1019
sVV7_-3
p1020
S'E7'
p1021
sVV/V_-11
p1022
S'Eb'
p1023
sVV/V_-10
p1024
S'E'
sVv7_-3
p1025
S'Em7'
p1026
sVV6/iv_-1
p1027
S'B/D#'
p1028
sVV6/5/III_-8
p1029
S'Eb7/G'
p1030
sVV7/IV_0
p1031
S'C7'
p1032
sVV/V_0
p1033
S'D'
sVi6_-8
p1034
S'Em/G'
p1035
sVIV_-9
p1036
S'Ab'
p1037
sVvii/o2_-11
p1038
S'C/o7/Bb'
p1039
sVvii/o2_-10
p1040
S'C#/o7/B'
p1041
sVi6_-2
p1042
S'Bbm/Db'
p1043
sVi6_-3
p1044
S'Am/C'
p1045
sVi6_-1
p1046
S'Bm/D'
p1047
sVi6_-6
p1048
S'F#m/A'
p1049
sVi6_-7
p1050
S'Fm/Ab'
p1051
sVi6_-4
p1052
S'Abm/Cb'
p1053
sVi6_-5
p1054
S'Gm/Bb'
p1055
sVVII_0
p1056
S'B'
sVV7_-4
p1057
S'Eb7'
p1058
sVV7_-5
p1059
S'D7'
p1060
sVvio6_-10
p1061
S'Bdim/D'
p1062
sVV6/iv_-10
p1063
S'D/F#'
p1064
sVV7_-8
p1065
S'B7'
p1066
sVviio6/III_0
p1067
S'D#dim/F#'
p1068
sVii6_-6
p1069
S'G#m/B'
p1070
sVii6_-7
p1071
S'Gm/Bb'
p1072
sVii6_-4
p1073
S'Bbm/Db'
p1074
sVii6_-5
p1075
S'Am/C'
p1076
sVii6_-2
p1077
S'Cm/Eb'
p1078
sVii6_-3
p1079
S'Bm/D'
p1080
sVV6/5/iv_0
p1081
S'C7/E'
p1082
sVii6_-1
p1083
S'C#m/E'
p1084
sVvii/o2_0
p1085
S'B/o7/A'
p1086
sVii6_-8
p1087
S'F#m/A'
p1088
sVii6_-9
p1089
S'Fm/Ab'
p1090
sVvii/o2_-6
p1091
S'F/o7/Eb'
p1092
sVIII6_-4
p1093
S'C/E'
p1094
sVV6/5/vi_-4
p1095
S'C7/E'
p1096
sVV6/5/vi_-5
p1097
S'B7/D#'
p1098
sVI6/4_0
p1099
S'C/G'
p1100
sVV6/5/vi_-2
p1101
S'D7/F#'
p1102
sVviio6_-1
p1103
S'A#dim/C#'
p1104
sVV6/5/vi_-3
p1105
S'C#7/F'
p1106
sViv7_-6
p1107
S'BmM7'
p1108
sViv7_-7
p1109
S'BbmM7'
p1110
sViv7_-4
p1111
S'DbmM7'
p1112
sViv7_-5
p1113
S'CmM7'
p1114
sViv7_-2
p1115
S'EbmM7'
p1116
sViv7_-3
p1117
S'DmM7'
p1118
sVv2_-3
p1119
S'Em7/D'
p1120
sVvi7_-1
p1121
S'G#m7'
p1122
sVv2_-2
p1123
S'Fm7/Eb'
p1124
sVv2_-9
p1125
S'Bbm7/Ab'
p1126
sVv2_-8
p1127
S'Bm7/A'
p1128
sViv7_-8
p1129
S'AmM7'
p1130
sViv7_-9
p1131
S'AbmM7'
p1132
sS'bVII7_-3'
p1133
S'G7'
p1134
sS'bVII7_-2'
p1135
S'Ab7'
p1136
sS'bVII7_-1'
p1137
S'A7'
p1138
sVvi7_-3
p1139
S'F#m7'
p1140
sS'bVII7_-7'
p1141
S'Eb7'
p1142
sS'bVII7_-6'
p1143
S'E7'
p1144
sS'bVII7_-5'
p1145
S'F7'
p1146
sS'bVII7_-4'
p1147
S'Gb7'
p1148
sVIV6_-11
p1149
S'Gb/Bb'
p1150
sVIV6_-10
p1151
S'G/B'
p1152
sS'bVII7_-9'
p1153
S'Db7'
p1154
sS'bVII7_-8'
p1155
S'D7'
p1156
sVviio6/VII_0
p1157
S'A#dim/C#'
p1158
sVvi7_-5
p1159
S'Em7'
p1160
sVv6_-9
p1161
S'Bbm/Db'
p1162
sVv6_-8
p1163
S'Bm/D'
p1164
sVvi7_-6
p1165
S'D#m7'
p1166
sVv6_-1
p1167
S'F#m/A'
p1168
sVv6_-3
p1169
S'Em/G'
p1170
sVv6_-2
p1171
S'Fm/Ab'
p1172
sVv6_-5
p1173
S'Dm/F'
p1174
sVv6_-4
p1175
S'Ebm/Gb'
p1176
sVv6_-7
p1177
S'Cm/Eb'
p1178
sVv6_-6
p1179
S'C#m/E'
p1180
sVV6/vi_-4
p1181
S'C/E'
p1182
sVI_-11
p1183
S'Db'
p1184
sVI_-10
p1185
S'D'
sVV6/vi_-5
p1186
S'B/D#'
p1187
sVV6/vi_-6
p1188
S'Bb/D'
p1189
sVviio7/iv_-11
p1190
S'Fo7'
p1191
sVviio7/iv_-10
p1192
S'F#o7'
p1193
sViii6_-2
p1194
S'Dm/F'
p1195
sViii6_-3
p1196
S'C#m/E'
p1197
sVii6/5_0
p1198
S'Dm7/F'
p1199
sViii6_-1
p1200
S'D#m/F#'
p1201
sViii6_-6
p1202
S'A#m/C#'
p1203
sViii6_-7
p1204
S'Am/C'
p1205
sViii6_-4
p1206
S'Cm/Eb'
p1207
sViii6_-5
p1208
S'Bm/D'
p1209
sVI6_-2
p1210
S'Bb/D'
p1211
sVI6_-3
p1212
S'A/C#'
p1213
sViii6_-8
p1214
S'G#m/B'
p1215
sViii6_-9
p1216
S'Gm/Bb'
p1217
sVI6_-6
p1218
S'F#/A#'
p1219
sVI6_-7
p1220
S'F/A'
p1221
sVI6_-4
p1222
S'Ab/C'
p1223
sVI6_-5
p1224
S'G/B'
p1225
sVV2_-11
p1226
S'Ab7/Gb'
p1227
sVV2_-10
p1228
S'A7/G'
p1229
sVviio6_-2
p1230
S'Adim/C'
p1231
sVV6/5/iv_-4
p1232
S'Ab7/C'
p1233
sVV6/5/iv_-5
p1234
S'G7/B'
p1235
sVV6/5/iv_-6
p1236
S'F#7/A#'
p1237
sVV6/vi_-3
p1238
S'C#/F'
p1239
sVV6/5/iv_-1
p1240
S'B7/D#'
p1241
sVV6/5/iv_-2
p1242
S'Bb7/D'
p1243
sVV6/5/iv_-3
p1244
S'A7/C#'
p1245
sViii_-7
p1246
S'Am'
p1247
sVVI_-1
p1248
S'G#'
p1249
sViii_-5
p1250
S'Bm'
p1251
sViii_-4
p1252
S'Cm'
p1253
sViii_-3
p1254
S'C#m'
p1255
sViii_-2
p1256
S'Dm'
p1257
sViii_-1
p1258
S'D#m'
p1259
sVVI_-7
p1260
S'D'
sVVI_-8
p1261
S'C#'
p1262
sVVI_-9
p1263
S'C'
sViii_-9
p1264
S'Gm'
p1265
sViii_-8
p1266
S'G#m'
p1267
sVi6/4_-3
p1268
S'Am/E'
p1269
sVIV6_-9
p1270
S'Ab/C'
p1271
sVIV6_-8
p1272
S'A/C#'
p1273
sVIII_-11
p1274
S'F'
sVV6/V_-7
p1275
S'G/B'
p1276
sVIV6_-5
p1277
S'C/E'
p1278
sVIV6_-4
p1279
S'Db/F'
p1280
sVIV6_-7
p1281
S'Bb/D'
p1282
sVIV6_-6
p1283
S'B/D#'
p1284
sVIV6_-1
p1285
S'E/G#'
p1286
sVi6/4_-1
p1287
S'Bm/F#'
p1288
sVIV6_-3
p1289
S'D/F#'
p1290
sVIV6_-2
p1291
S'Eb/G'
p1292
sVIV2_-1
p1293
S'Emaj7/D#'
p1294
sVIV2_-3
p1295
S'Dmaj7/C#'
p1296
sVIV2_-2
p1297
S'Ebmaj7/D'
p1298
sVIV2_-5
p1299
S'Cmaj7/B'
p1300
sVIV2_-4
p1301
S'Dbmaj7/C'
p1302
sVIV2_-7
p1303
S'Bbmaj7/A'
p1304
sVIV2_-6
p1305
S'Bmaj7/A#'
p1306
sVIV2_-9
p1307
S'Abmaj7/G'
p1308
sViv6_-9
p1309
S'Abm/Cb'
p1310
sVvii/o2_-8
p1311
S'D#/o7/C#'
p1312
sVviio7/iv_-1
p1313
S'D#o7'
p1314
sVV6/V_-3
p1315
S'B/D#'
p1316
sVii/o4/3_-11
p1317
S'Eb/o7/Bbb'
p1318
sVVI_-3
p1319
S'F#'
p1320
sVV6/vi_-11
p1321
S'F/A'
p1322
sVV2/IV_-3
p1323
S'A7/G'
p1324
sVviio7/iv_-7
p1325
S'Ao7'
p1326
sVi6/4_-4
p1327
S'Abm/Eb'
p1328
sVviio7/iv_-6
p1329
S'A#o7'
p1330
sVV2_-5
p1331
S'D7/C'
p1332
sVV2_-4
p1333
S'Eb7/Db'
p1334
sVV2_-7
p1335
S'C7/Bb'
p1336
sVV2_-6
p1337
S'C#7/B'
p1338
sVV2_-1
p1339
S'F#7/E'
p1340
sVviio7/iv_-5
p1341
S'Bo7'
p1342
sVV2_-3
p1343
S'E7/D'
p1344
sVV2_-2
p1345
S'F7/Eb'
p1346
sVIII6_-6
p1347
S'Bb/D'
p1348
sVviio7/iv_-4
p1349
S'Co7'
p1350
sVV2_-9
p1351
S'Bb7/Ab'
p1352
sVV2_-8
p1353
S'B7/A'
p1354
sVIV2_-10
p1355
S'Gmaj7/F#'
p1356
sVV6/V_-6
p1357
S'Ab/C'
p1358
sVi6/4_-2
p1359
S'Bbm/F'
p1360
sVV6/V_-4
p1361
S'Bb/D'
p1362
sVV6/V_-5
p1363
S'A/C#'
p1364
sVV6/V_-2
p1365
S'C/E'
p1366
sViv6_-8
p1367
S'Am/C'
p1368
sVi6/4_-5
p1369
S'Gm/D'
p1370
sVV6/V_-1
p1371
S'C#/F'
p1372
sViv6_-5
p1373
S'Cm/Eb'
p1374
sViv6_-4
p1375
S'Dbm/Fb'
p1376
sViv6_-7
p1377
S'Bbm/Db'
p1378
sViv6_-6
p1379
S'Bm/D'
p1380
sViv6_-1
p1381
S'Em/G'
p1382
sViv_-11
p1383
S'Gbm'
p1384
sVV4/3_-11
p1385
S'Ab7/Eb'
p1386
sVV4/3_-10
p1387
S'A7/E'
p1388
sVIV7_-6
p1389
S'Bmaj7'
p1390
sVIV7_-7
p1391
S'Bbmaj7'
p1392
sVIV7_-4
p1393
S'Dbmaj7'
p1394
sVIV7_-5
p1395
S'Cmaj7'
p1396
sVIV7_-2
p1397
S'Ebmaj7'
p1398
sVIV7_-3
p1399
S'Dmaj7'
p1400
sVv7_-4
p1401
S'Ebm7'
p1402
sVIV7_-1
p1403
S'Emaj7'
p1404
sVv7_-8
p1405
S'Bm7'
p1406
sViv6_-2
p1407
S'Ebm/Gb'
p1408
sVIV7_-8
p1409
S'Amaj7'
p1410
sVIV7_-9
p1411
S'Abmaj7'
p1412
sVv7_-2
p1413
S'Fm7'
p1414
sVIII6_-9
p1415
S'G/B'
p1416
sVvii/o4/3_0
p1417
S'B/o7/F'
p1418
sViv6_-11
p1419
S'Gbm/Bbb'
p1420
sViv6_-10
p1421
S'Gm/Bb'
p1422
sVii/o6/5_0
p1423
S'D/o7/F'
p1424
sVviio7/V_-6
p1425
S'Co7'
p1426
sVVI6_-7
p1427
S'D/F#'
p1428
sVv7_-1
p1429
S'F#m7'
p1430
sViio6_-11
p1431
S'Ebdim/Gb'
p1432
sVv7_-6
p1433
S'C#m7'
p1434
sVV6/5/V_-5
p1435
S'A7/C#'
p1436
sVv7_-5
p1437
S'Dm7'
p1438
sVviio7/iv_0
p1439
S'Eo7'
p1440
sVviio7/IV_-11
p1441
S'Fo7'
p1442
sVviio7/IV_-10
p1443
S'F#o7'
p1444
sVV6/5/vi_-10
p1445
S'F#7/A#'
p1446
sVV6/5/vi_-11
p1447
S'F7/A'
p1448
sVviio6/5_0
p1449
S'Bo7/D'
p1450
sVv7_-9
p1451
S'Bbm7'
p1452
sVV/vi_0
p1453
S'E'
sVV6/vi_-1
p1454
S'Eb/G'
p1455
sVVI6_-5
p1456
S'E/G#'
p1457
sVvi/o7_-1
p1458
S'G#/o7'
p1459
sVii/o7_0
p1460
S'D/o7'
p1461
sVii4/3_-5
p1462
S'Am7/E'
p1463
sVviio6/III_-11
p1464
S'Edim/G'
p1465
sVviio6/III_-10
p1466
S'Fdim/Ab'
p1467
sVviio7/V_-3
p1468
S'D#o7'
p1469
sVviio_-9
p1470
S'Ddim'
p1471
sVVI6_-4
p1472
S'F/A'
p1473
sVvi6/5_0
p1474
S'Am7/C'
p1475
sVvi/o7_-2
p1476
S'G/o7'
p1477
sVvi/o7_0
p1478
S'A/o7'
p1479
sS'bVII7_0'
p1480
S'Bb7'
p1481
sVI6/4_-11
p1482
S'Db/Ab'
p1483
sVI6/4_-10
p1484
S'D/A'
p1485
sVIV2_-8
p1486
S'Amaj7/G#'
p1487
sVviio6/IV_-7
p1488
S'Adim/C'
p1489
sVVII_-10
p1490
S'C#'
p1491
sVVII_-11
p1492
S'C'
sVV6/ii_-11
p1493
S'Bb/D'
p1494
sVV6/ii_-10
p1495
S'B/D#'
p1496
sVii/o4/3_-4
p1497
S'Bb/o7/Fb'
p1498
sVii/o4/3_-5
p1499
S'A/o7/Eb'
p1500
sVii/o4/3_-6
p1501
S'G#/o7/D'
p1502
sVii/o4/3_-7
p1503
S'G/o7/Db'
p1504
sVvio6_-3
p1505
S'F#dim/A'
p1506
sVii/o4/3_-1
p1507
S'C#/o7/G'
p1508
sVii/o4/3_-2
p1509
S'C/o7/Gb'
p1510
sVii/o4/3_-3
p1511
S'B/o7/F'
p1512
sVV4/3/V_-1
p1513
S'C#7/G#'
p1514
sVV4/3/V_-2
p1515
S'C7/G'
p1516
sVV4/3/V_-3
p1517
S'B7/F#'
p1518
sVii/o4/3_-8
p1519
S'F#/o7/C'
p1520
sVii/o4/3_-9
p1521
S'F/o7/Cb'
p1522
sVV4/3/V_-6
p1523
S'G#7/D#'
p1524
sVV4/3/V_-7
p1525
S'G7/D'
p1526
sVviio7/V_-11
p1527
S'Go7'
p1528
sVviio7/V_-10
p1529
S'G#o7'
p1530
sVV7/V_-11
p1531
S'Eb7'
p1532
sVV7/V_-10
p1533
S'E7'
p1534
sVii7_-11
p1535
S'Ebm7'
p1536
sVii7_-10
p1537
S'Em7'
p1538
sVV6/iv_-11
p1539
S'Db/F'
p1540
sVvio6_-2
p1541
S'Gdim/Bb'
p1542
sVviio4/3_0
p1543
S'Bo7/F'
p1544
sVV/V_-4
p1545
S'Bb'
p1546
sVvi/o7_-4
p1547
S'F/o7'
p1548
sVV6/V_-8
p1549
S'F#/A#'
p1550
sVIII_-6
p1551
S'A#'
p1552
sVIII_-5
p1553
S'B'
sVIII_-4
p1554
S'C'
sVIII_-3
p1555
S'C#'
p1556
sVIII_-2
p1557
S'D'
sVIII_-1
p1558
S'D#'
p1559
sVVI6_-6
p1560
S'Eb/G'
p1561
sVvii/o4/3_-9
p1562
S'D/o7/Ab'
p1563
sVV4/3/vi_-10
p1564
S'F#7/C#'
p1565
sVV4/3/vi_-11
p1566
S'F7/C'
p1567
sVIII_-9
p1568
S'G'
sVIII_-8
p1569
S'G#'
p1570
sVvio6_-1
p1571
S'G#dim/B'
p1572
sVV6/ii_-9
p1573
S'C/E'
p1574
sVV6/ii_-8
p1575
S'C#/F'
p1576
sVV6/ii_-3
p1577
S'F#/A#'
p1578
sVV6/ii_-2
p1579
S'G/B'
p1580
sVV6/ii_-1
p1581
S'Ab/C'
p1582
sVV6/ii_-7
p1583
S'D/F#'
p1584
sVV6/ii_-6
p1585
S'Eb/G'
p1586
sVV6/V_-9
p1587
S'F/A'
p1588
sVV6/ii_-4
p1589
S'F/A'
p1590
sVviio6/IV_-2
p1591
S'Ddim/F'
p1592
sVvi6/V_-1
p1593
S'D#m/F#'
p1594
sVvi6/V_-2
p1595
S'Dm/F'
p1596
sVvi6/V_-3
p1597
S'C#m/E'
p1598
sVvi6/V_-4
p1599
S'Cm/Eb'
p1600
sVVI6_-1
p1601
S'Ab/C'
p1602
sVvi6/V_-6
p1603
S'A#m/C#'
p1604
sVvi6/V_-7
p1605
S'Am/C'
p1606
sVvi6/V_-8
p1607
S'G#m/B'
p1608
sVvi6/V_-9
p1609
S'Gm/Bb'
p1610
sVviio6/IV_-8
p1611
S'G#dim/B'
p1612
sVviio6/IV_-9
p1613
S'Gdim/Bb'
p1614
sVV6/iv_-7
p1615
S'F/A'
p1616
sVv6_-11
p1617
S'Abm/Cb'
p1618
sVv6_-10
p1619
S'Am/C'
p1620
sVI6_-8
p1621
S'E/G#'
p1622
sVV6/5/vi_0
p1623
S'E7/G#'
p1624
sVvi/o7_-6
p1625
S'D#/o7'
p1626
sVviio6/III_-5
p1627
S'A#dim/C#'
p1628
sVV7_-9
p1629
S'Bb7'
p1630
sVV6_-9
p1631
S'Bb/D'
p1632
sVV6_-8
p1633
S'B/D#'
p1634
sVviio6/III_-4
p1635
S'Bdim/D'
p1636
sVii6_-10
p1637
S'Em/G'
p1638
sVii6_-11
p1639
S'Ebm/Gb'
p1640
sVV6_-1
p1641
S'F#/A#'
p1642
sVV6_-3
p1643
S'E/G#'
p1644
sVV6_-2
p1645
S'F/A'
p1646
sVV6_-5
p1647
S'D/F#'
p1648
sVV6_-4
p1649
S'Eb/G'
p1650
sVV6_-7
p1651
S'C/E'
p1652
sVV6_-6
p1653
S'C#/F'
p1654
sVV/V_-1
p1655
S'C#'
p1656
sVvi/o7_-7
p1657
S'D/o7'
p1658
sVvi6/V_-5
p1659
S'Bm/D'
p1660
sVviio6/5_-3
p1661
S'G#o7/B'
p1662
sVviio6/5_-2
p1663
S'Ao7/C'
p1664
sVviio6/5_-1
p1665
S'A#o7/C#'
p1666
sVV7_-1
p1667
S'F#7'
p1668
sVviio6/5_-7
p1669
S'Eo7/G'
p1670
sVviio6/5_-6
p1671
S'Fo7/Ab'
p1672
sVviio6/5_-5
p1673
S'F#o7/A'
p1674
sVviio6/5_-4
p1675
S'Go7/Bb'
p1676
sVii/o7_-11
p1677
S'Eb/o7'
p1678
sVviio6/5_-9
p1679
S'Do7/F'
p1680
sVviio6/5_-8
p1681
S'D#o7/F#'
p1682
sVviio7/V_-9
p1683
S'Ao7'
p1684
sVii/o7_-10
p1685
S'E/o7'
p1686
sVviio6/V_-5
p1687
S'C#dim/E'
p1688
sVV6/4_-10
p1689
S'A/E'
p1690
sVvii/o2_-4
p1691
S'G/o7/F'
p1692
sVviio7/V_-8
p1693
S'A#o7'
p1694
sVvi6/V_-10
p1695
S'F#m/A'
p1696
sVviio7/V_0
p1697
S'F#o7'
p1698
sVvi/o7_-9
p1699
S'C/o7'
p1700
sVV6/5_0
p1701
S'G7/B'
p1702
sVIV_-8
p1703
S'A'
sVV6/4_-11
p1704
S'Ab/Eb'
p1705
sVi6_-9
p1706
S'Ebm/Gb'
p1707
sVii/o4/3_0
p1708
S'D/o7/Ab'
p1709
sVviio_-8
p1710
S'D#dim'
p1711
sVviio7/IV_0
p1712
S'Eo7'
p1713
sVviio_-6
p1714
S'Fdim'
p1715
sVviio_-7
p1716
S'Edim'
p1717
sVviio_-4
p1718
S'Gdim'
p1719
sVviio_-5
p1720
S'F#dim'
p1721
sVviio_-2
p1722
S'Adim'
p1723
sVviio_-3
p1724
S'G#dim'
p1725
sVviio_-1
p1726
S'A#dim'
p1727
sVV/V_-2
p1728
S'C'
sVV6/4/ii_-10
p1729
S'B/F#'
p1730
sVviio6/V_-10
p1731
S'G#dim/B'
p1732
sVviio6/V_-11
p1733
S'Gdim/Bb'
p1734
sViv6_-3
p1735
S'Dm/F'
p1736
sVIV_-2
p1737
S'Eb'
p1738
sVV7/vi_-11
p1739
S'F7'
p1740
sVV7/vi_-10
p1741
S'F#7'
p1742
sVIV_-3
p1743
S'D'
sVV6/4/ii_-11
p1744
S'Bb/F'
p1745
sVii7_0
p1746
S'Dm7'
p1747
sVIV_-1
p1748
S'E'
sVi6/4_-7
p1749
S'Fm/C'
p1750
sVIV_-6
p1751
S'B'
sVvii/o4/3_-2
p1752
S'A/o7/Eb'
p1753
sVIV_-7
p1754
S'Bb'
p1755
sVviio6/4_-4
p1756
S'Gdim/Db'
p1757
sVviio6/4_-5
p1758
S'F#dim/C'
p1759
sVviio6/4_-6
p1760
S'Fdim/B'
p1761
sVviio6/4_-7
p1762
S'Edim/Bb'
p1763
sVviio6/4_-1
p1764
S'A#dim/E'
p1765
sVviio6/4_-2
p1766
S'Adim/Eb'
p1767
sVviio6/4_-3
p1768
S'G#dim/D'
p1769
sVV6/V_-10
p1770
S'E/G#'
p1771
sVV6/V_-11
p1772
S'Eb/G'
p1773
sVV/V_-5
p1774
S'A'
sVIV_-5
p1775
S'C'
sVviio6/4_-8
p1776
S'D#dim/A'
p1777
sVviio6/4_-9
p1778
S'Ddim/Ab'
p1779
sVi6/4_-6
p1780
S'F#m/C#'
p1781
sVV6/ii_0
p1782
S'A/C#'
p1783
sVvio6_-11
p1784
S'Bbdim/Db'
p1785
sVVII6_-5
p1786
S'F#/A#'
p1787
sVIV_-10
p1788
S'G'
sVi6_-11
p1789
S'Dbm/Fb'
p1790
sVviio6/4_0
p1791
S'Bdim/F'
p1792
sVVII_-6
p1793
S'F'
sS'bVI7_-10'
p1794
S'Bb7'
p1795
sVii4/3_-10
p1796
S'Em7/B'
p1797
sVviio6/IV_-6
p1798
S'A#dim/C#'
p1799
sVvi6/5_-9
p1800
S'Cm7/Eb'
p1801
sVvi6/5_-8
p1802
S'C#m7/E'
p1803
sVvi6/5_-5
p1804
S'Em7/G'
p1805
sVvi6/5_-4
p1806
S'Fm7/Ab'
p1807
sVvi6/5_-7
p1808
S'Dm7/F'
p1809
sVvi6/5_-6
p1810
S'D#m7/F#'
p1811
sVvi6/5_-1
p1812
S'G#m7/B'
p1813
sVvi6/5_-3
p1814
S'F#m7/A'
p1815
sVvi6/5_-2
p1816
S'Gm7/Bb'
p1817
sVVII6_-1
p1818
S'Bb/D'
p1819
sVvii/o4/3_-7
p1820
S'E/o7/Bb'
p1821
sVii4/3_-11
p1822
S'Ebm7/Bb'
p1823
sVvii/o7/V_-1
p1824
S'F/o7'
p1825
sVii/o2_0
p1826
S'D/o7/C'
p1827
sVvii/o7/V_-3
p1828
S'D#/o7'
p1829
sVvii/o7/V_-2
p1830
S'E/o7'
p1831
sVvii/o7/V_-5
p1832
S'C#/o7'
p1833
sVvii/o7/V_-4
p1834
S'D/o7'
p1835
sVvii/o7/V_-7
p1836
S'B/o7'
p1837
sVvii/o7/V_-6
p1838
S'C/o7'
p1839
sVvii/o7/V_-9
p1840
S'A/o7'
p1841
sVvii/o7/V_-8
p1842
S'A#/o7'
p1843
sVVII6_-4
p1844
S'G/B'
p1845
sVii6/5_-1
p1846
S'C#m7/E'
p1847
sVii6/5_-2
p1848
S'Cm7/Eb'
p1849
sVii6/5_-3
p1850
S'Bm7/D'
p1851
sVii6/5_-4
p1852
S'Bbm7/Db'
p1853
sVii6/5_-5
p1854
S'Am7/C'
p1855
sVii6/5_-6
p1856
S'G#m7/B'
p1857
sVii6/5_-7
p1858
S'Gm7/Bb'
p1859
sVii6/5_-8
p1860
S'F#m7/A'
p1861
sVii6/5_-9
p1862
S'Fm7/Ab'
p1863
sViio6_-10
p1864
S'Edim/G'
p1865
sVii/o7_-5
p1866
S'A/o7'
p1867
sVVII6_-9
p1868
S'D/F#'
p1869
sVV7/IV_-11
p1870
S'Db7'
p1871
sVV7/IV_-10
p1872
S'D7'
p1873
sVVII6_-8
p1874
S'Eb/G'
p1875
sVvio6_-7
p1876
S'Ddim/F'
p1877
sVVII_-5
p1878
S'F#'
p1879
sVIV2_0
p1880
S'Fmaj7/E'
p1881
sVV7/V_-2
p1882
S'C7'
p1883
sVV/V_-9
p1884
S'F'
sVV/V_-8
p1885
S'F#'
p1886
sVIII+6/5_-8
p1887
S'Ab7+/C'
p1888
sVIII+6/5_-9
p1889
S'G7+/B'
p1890
sVIII+6/5_-6
p1891
S'Bb7+/D'
p1892
sVIII+6/5_-7
p1893
S'A7+/C#'
p1894
sVIII+6/5_-4
p1895
S'C7+/E'
p1896
sVIII+6/5_-5
p1897
S'B7+/D#'
p1898
sVIII+6/5_-2
p1899
S'D7+/F#'
p1900
sVIII+6/5_-3
p1901
S'C#7+/F'
p1902
sVvi_0
p1903
S'Am'
p1904
sVIII+6/5_-1
p1905
S'Eb7+/G'
p1906
sVviio6/VII_-2
p1907
S'G#dim/B'
p1908
sVviio6/VII_-3
p1909
S'Gdim/Bb'
p1910
sVviio6/VII_-1
p1911
S'Adim/C'
p1912
sVviio6/VII_-6
p1913
S'Eb#dim/G'
p1914
sVviio6/VII_-7
p1915
S'D#dim/F#'
p1916
sVviio6/VII_-4
p1917
S'F#dim/A'
p1918
sVviio6/VII_-5
p1919
S'Fdim/Ab'
p1920
sVi6/4_-9
p1921
S'Ebm/Bb'
p1922
sVviio6/VII_-8
p1923
S'Ddim/F'
p1924
sVviio6/VII_-9
p1925
S'C#dim/E'
p1926
sViv_0
p1927
S'Fm'
p1928
sVV6/III_-9
p1929
S'D/F#'
p1930
sVV6/III_-8
p1931
S'Eb/G'
p1932
sVV7/vi_-9
p1933
S'G7'
p1934
sVV7/vi_-8
p1935
S'G#7'
p1936
sVV7/vi_-5
p1937
S'B7'
p1938
sVV7/vi_-4
p1939
S'C7'
p1940
sVV7/vi_-7
p1941
S'A7'
p1942
sVV7/vi_-6
p1943
S'A#7'
p1944
sVV7/vi_-1
p1945
S'D#7'
p1946
sVvi_-2
p1947
S'Gm'
p1948
sVV7/vi_-3
p1949
S'C#7'
p1950
sVV7/vi_-2
p1951
S'D7'
p1952
sVii7/V_-8
p1953
S'C#m7'
p1954
sVV4/3_-8
p1955
S'B7/F#'
p1956
sVi6/4_-8
p1957
S'Em/B'
p1958
sVii7/V_-2
p1959
S'Gm7'
p1960
sVVII_-3
p1961
S'G#'
p1962
sVii7/V_-1
p1963
S'G#m7'
p1964
sVii7/V_-6
p1965
S'D#m7'
p1966
sVii7/V_-7
p1967
S'Dm7'
p1968
sVii7/V_-4
p1969
S'Fm7'
p1970
sVii7/V_-5
p1971
S'Em7'
p1972
sVV4/3/vi_0
p1973
S'E7/B'
p1974
sVi6_-10
p1975
S'Dm/F'
p1976
sVV6/4/ii_0
p1977
S'A/E'
p1978
sVviio4/3_-11
p1979
S'Co7/Gb'
p1980
sVIV_-11
p1981
S'Gb'
p1982
sVV4/3_-3
p1983
S'E7/B'
p1984
sVviio4/3_-10
p1985
S'C#o7/G'
p1986
sViio6_0
p1987
S'Ddim/F'
p1988
sVvi_-9
p1989
S'Cm'
p1990
sVIII6_-10
p1991
S'F#/A#'
p1992
sViv7_-11
p1993
S'GbmM7'
p1994
sVii/o7_-1
p1995
S'C#/o7'
p1996
sVIII6_-1
p1997
S'Eb/G'
p1998
sVV6/vi_0
p1999
S'E/G#'
p2000
sVV2/IV_-2
p2001
S'Bb7/Ab'
p2002
sVii6_0
p2003
S'Dm/F'
p2004
sVV2/IV_-1
p2005
S'B7/A'
p2006
sVV2/IV_-6
p2007
S'F#7/E'
p2008
sVV2/IV_-7
p2009
S'F7/Eb'
p2010
sVV2/IV_-4
p2011
S'Ab7/Gb'
p2012
sVV2/IV_-5
p2013
S'G7/F'
p2014
sVv7_0
p2015
S'Gm7'
p2016
sVV2/IV_-8
p2017
S'E7/D'
p2018
sVV2/IV_-9
p2019
S'Eb7/Db'
p2020
sVV6/vi_-10
p2021
S'F#/A#'
p2022
sVii2_0
p2023
S'Dm7/C'
p2024
sVIII_-7
p2025
S'A'
sVii/o2_-8
p2026
S'F#/o7/E'
p2027
sVii/o2_-9
p2028
S'F/o7/Eb'
p2029
sVii/o2_-6
p2030
S'G#/o7/F#'
p2031
sVii/o2_-7
p2032
S'G/o7/F'
p2033
sVii/o2_-4
p2034
S'Bb/o7/Ab'
p2035
sVii/o2_-5
p2036
S'A/o7/G'
p2037
sVii/o2_-2
p2038
S'C/o7/Bb'
p2039
sVii/o2_-3
p2040
S'B/o7/A'
p2041
sVii/o2_-1
p2042
S'C#/o7/B'
p2043
sVviio6/III_-7
p2044
S'G#dim/B'
p2045
sVviio6/III_-6
p2046
S'Adim/C'
p2047
sVi_-11
p2048
S'Dbm'
p2049
sVi_-10
p2050
S'Dm'
p2051
sVviio6/III_-3
p2052
S'Cdim/D#'
p2053
sVviio6/III_-2
p2054
S'C#dim/E'
p2055
sVviio6/III_-1
p2056
S'Ddim/F'
p2057
sVi6/4_0
p2058
S'Cm/G'
p2059
sVV4/3/vi_-8
p2060
S'G#7/D#'
p2061
sVV6/5/III_-9
p2062
S'D7/F#'
p2063
sVviio6/III_-9
p2064
S'F#dim/A'
p2065
sVviio6/III_-8
p2066
S'Gdim/Bb'
p2067
sVi_-7
p2068
S'Fm'
p2069
sVi_-6
p2070
S'F#m'
p2071
sVi_-5
p2072
S'Gm'
p2073
sVi_-4
p2074
S'Abm'
p2075
sVi_-3
p2076
S'Am'
p2077
sVi_-2
p2078
S'Bbm'
p2079
sVi_-1
p2080
S'Bm'
p2081
sVi_-9
p2082
S'Ebm'
p2083
sVi_-8
p2084
S'Em'
p2085
sVvi6/V_0
p2086
S'Em/G'
p2087
sVIII6_0
p2088
S'E/G#'
p2089
sVii2_-10
p2090
S'Em7/D'
p2091
sVii2_-11
p2092
S'Ebm7/Db'
p2093
sVviio6/5_-11
p2094
S'Co7/Eb'
p2095
sVviio6/5_-10
p2096
S'C#o7/E'
p2097
sViv_-10
p2098
S'Gm'
p2099
sVvio6_-6
p2100
S'D#dim/F#'
p2101
sVvio6_-5
p2102
S'Edim/G'
p2103
sVvio6_-4
p2104
S'Fdim/Ab'
p2105
sVviio_0
p2106
S'Bdim'
p2107
sVvii/o7/V_0
p2108
S'F#/o7'
p2109
sVvio6_-9
p2110
S'Cdim/Eb'
p2111
sVvio6_-8
p2112
S'C#dim/E'
p2113
sVV7/vi_0
p2114
S'E7'
p2115
sVii/o6/5_-4
p2116
S'Bb/o7/Db'
p2117
sVii/o6/5_-5
p2118
S'A/o7/C'
p2119
sVV_-10
p2120
S'A'
sVV_-11
p2121
S'Ab'
p2122
sVvi7_-10
p2123
S'Bm7'
p2124
sVvi7_-11
p2125
S'Bbm7'
p2126
sVii/o6/5_-6
p2127
S'G#/o7/B'
p2128
sVii/o7_-3
p2129
S'B/o7'
p2130
sVii4/3_-6
p2131
S'G#m7/D#'
p2132
sVii/o6/5_-7
p2133
S'G/o7/Bb'
p2134
sVV2/IV_0
p2135
S'C7/Bb'
p2136
sVV6/5_-11
p2137
S'Ab7/C'
p2138
sVV6/5_-10
p2139
S'A7/C#'
p2140
sVvi/o7_-3
p2141
S'F#/o7'
p2142
sVii/o6/5_-10
p2143
S'E/o7/G'
p2144
sVii/o6/5_-1
p2145
S'C#/o7/E'
p2146
s.