(lp1
(lp2
S'C'
aS'C'
aS'F/A'
p3
aS'G/B'
p4
aS'C'
aS'G'
aS'Am'
p5
aS'F'
aS'Bdim/D'
p6
aS'C'
aS'G'
aS'C'
ag4
aS'Am7/C'
p7
ag6
aS'C/E'
p8
aS'Dm7/F'
p9
aS'G'
aS'G7'
p10
aS'C'
aS'C'
aS'C'
aS'Dm'
p11
ag6
ag8
ag8
aS'G7/D'
p12
aS'C'
aS'G'
ag5
ag5
aS'Em/G'
p13
aS'Dm/F'
p14
ag8
ag10
aS'C'
ag8
aS'C7'
p15
aS'F'
aS'C'
ag4
aS'G7/B'
p16
aS'C'
ag6
ag8
aS'C'
aS'G'
ag10
ag5
aS'F'
aS'C'
aS'G'
aS'C'
ag4
ag3
ag5
ag9
aS'G'
ag10
aS'C'
aa(lp17
S'B'
aS'B'
aS'E/G#'
p18
aS'F#/A#'
p19
aS'B'
aS'F#'
p20
aS'G#m'
p21
aS'E'
aS'A#dim/C#'
p22
aS'B'
ag20
aS'B'
ag19
aS'G#m7/B'
p23
ag22
aS'B/D#'
p24
aS'C#m7/E'
p25
ag20
aS'F#7'
p26
aS'B'
aS'B'
aS'B'
aS'C#m'
p27
ag22
ag24
ag24
aS'F#7/C#'
p28
aS'B'
ag20
ag21
ag21
aS'D#m/F#'
p29
aS'C#m/E'
p30
ag24
ag26
aS'B'
ag24
aS'B7'
p31
aS'E'
aS'B'
ag19
aS'F#7/A#'
p32
aS'B'
ag22
ag24
aS'B'
ag20
ag26
ag21
aS'E'
aS'B'
ag20
aS'B'
ag19
ag18
ag21
ag25
ag20
ag26
aS'B'
aa(lp33
S'Bb'
p34
ag34
aS'Eb/G'
p35
aS'F/A'
p36
ag34
aS'F'
aS'Gm'
p37
aS'Eb'
p38
aS'Adim/C'
p39
ag34
aS'F'
ag34
ag36
aS'Gm7/Bb'
p40
ag39
aS'Bb/D'
p41
aS'Cm7/Eb'
p42
aS'F'
aS'F7'
p43
ag34
ag34
ag34
aS'Cm'
p44
ag39
ag41
ag41
aS'F7/C'
p45
ag34
aS'F'
ag37
ag37
aS'Dm/F'
p46
aS'Cm/Eb'
p47
ag41
ag43
ag34
ag41
aS'Bb7'
p48
ag38
ag34
ag36
aS'F7/A'
p49
ag34
ag39
ag41
ag34
aS'F'
ag43
ag37
ag38
ag34
aS'F'
ag34
ag36
ag35
ag37
ag42
aS'F'
ag43
ag34
aa(lp50
S'A'
aS'A'
aS'D/F#'
p51
aS'E/G#'
p52
aS'A'
aS'E'
aS'F#m'
p53
aS'D'
aS'G#dim/B'
p54
aS'A'
aS'E'
aS'A'
ag52
aS'F#m7/A'
p55
ag54
aS'A/C#'
p56
aS'Bm7/D'
p57
aS'E'
aS'E7'
p58
aS'A'
aS'A'
aS'A'
aS'Bm'
p59
ag54
ag56
ag56
aS'E7/B'
p60
aS'A'
aS'E'
ag53
ag53
aS'C#m/E'
p61
aS'Bm/D'
p62
ag56
ag58
aS'A'
ag56
aS'A7'
p63
aS'D'
aS'A'
ag52
aS'E7/G#'
p64
aS'A'
ag54
ag56
aS'A'
aS'E'
ag58
ag53
aS'D'
aS'A'
aS'E'
aS'A'
ag52
ag51
ag53
ag57
aS'E'
ag58
aS'A'
aa(lp65
S'Ab'
p66
ag66
aS'Db/F'
p67
aS'Eb/G'
p68
ag66
aS'Eb'
p69
aS'Fm'
p70
aS'Db'
p71
aS'Gdim/Bb'
p72
ag66
ag69
ag66
ag68
aS'Fm7/Ab'
p73
ag72
aS'Ab/C'
p74
aS'Bbm7/Db'
p75
ag69
aS'Eb7'
p76
ag66
ag66
ag66
aS'Bbm'
p77
ag72
ag74
ag74
aS'Eb7/Bb'
p78
ag66
ag69
ag70
ag70
aS'Cm/Eb'
p79
aS'Bbm/Db'
p80
ag74
ag76
ag66
ag74
aS'Ab7'
p81
ag71
ag66
ag68
aS'Eb7/G'
p82
ag66
ag72
ag74
ag66
ag69
ag76
ag70
ag71
ag66
ag69
ag66
ag68
ag67
ag70
ag75
ag69
ag76
ag66
aa(lp83
S'G'
aS'G'
aS'C/E'
p84
aS'D/F#'
p85
aS'G'
aS'D'
aS'Em'
p86
aS'C'
aS'F#dim/A'
p87
aS'G'
aS'D'
aS'G'
ag85
aS'Em7/G'
p88
ag87
aS'G/B'
p89
aS'Am7/C'
p90
aS'D'
aS'D7'
p91
aS'G'
aS'G'
aS'G'
aS'Am'
p92
ag87
ag89
ag89
aS'D7/A'
p93
aS'G'
aS'D'
ag86
ag86
aS'Bm/D'
p94
aS'Am/C'
p95
ag89
ag91
aS'G'
ag89
aS'G7'
p96
aS'C'
aS'G'
ag85
aS'D7/F#'
p97
aS'G'
ag87
ag89
aS'G'
aS'D'
ag91
ag86
aS'C'
aS'G'
aS'D'
aS'G'
ag85
ag84
ag86
ag90
aS'D'
ag91
aS'G'
aa(lp98
S'F#'
p99
ag99
aS'B/D#'
p100
aS'C#/F'
p101
ag99
aS'C#'
p102
aS'D#m'
p103
aS'B'
aS'Fdim/Ab'
p104
ag99
ag102
ag99
ag101
aS'D#m7/F#'
p105
ag104
aS'F#/A#'
p106
aS'G#m7/B'
p107
ag102
aS'C#7'
p108
ag99
ag99
ag99
aS'G#m'
p109
ag104
ag106
ag106
aS'C#7/G#'
p110
ag99
ag102
ag103
ag103
aS'A#m/C#'
p111
aS'G#m/B'
p112
ag106
ag108
ag99
ag106
aS'F#7'
p113
aS'B'
ag99
ag101
aS'C#7/F'
p114
ag99
ag104
ag106
ag99
ag102
ag108
ag103
aS'B'
ag99
ag102
ag99
ag101
ag100
ag103
ag107
ag102
ag108
ag99
aa(lp115
S'F'
aS'F'
aS'Bb/D'
p116
aS'C/E'
p117
aS'F'
aS'C'
aS'Dm'
p118
aS'Bb'
p119
aS'Edim/G'
p120
aS'F'
aS'C'
aS'F'
ag117
aS'Dm7/F'
p121
ag120
aS'F/A'
p122
aS'Gm7/Bb'
p123
aS'C'
aS'C7'
p124
aS'F'
aS'F'
aS'F'
aS'Gm'
p125
ag120
ag122
ag122
aS'C7/G'
p126
aS'F'
aS'C'
ag118
ag118
aS'Am/C'
p127
aS'Gm/Bb'
p128
ag122
ag124
aS'F'
ag122
aS'F7'
p129
ag119
aS'F'
ag117
aS'C7/E'
p130
aS'F'
ag120
ag122
aS'F'
aS'C'
ag124
ag118
ag119
aS'F'
aS'C'
aS'F'
ag117
ag116
ag118
ag123
aS'C'
ag124
aS'F'
aa(lp131
S'E'
aS'E'
aS'A/C#'
p132
aS'B/D#'
p133
aS'E'
aS'B'
aS'C#m'
p134
aS'A'
aS'D#dim/F#'
p135
aS'E'
aS'B'
aS'E'
ag133
aS'C#m7/E'
p136
ag135
aS'E/G#'
p137
aS'F#m7/A'
p138
aS'B'
aS'B7'
p139
aS'E'
aS'E'
aS'E'
aS'F#m'
p140
ag135
ag137
ag137
aS'B7/F#'
p141
aS'E'
aS'B'
ag134
ag134
aS'G#m/B'
p142
aS'F#m/A'
p143
ag137
ag139
aS'E'
ag137
aS'E7'
p144
aS'A'
aS'E'
ag133
aS'B7/D#'
p145
aS'E'
ag135
ag137
aS'E'
aS'B'
ag139
ag134
aS'A'
aS'E'
aS'B'
aS'E'
ag133
ag132
ag134
ag138
aS'B'
ag139
aS'E'
aa(lp146
S'Eb'
p147
ag147
aS'Ab/C'
p148
aS'Bb/D'
p149
ag147
aS'Bb'
p150
aS'Cm'
p151
aS'Ab'
p152
aS'Ddim/F'
p153
ag147
ag150
ag147
ag149
aS'Cm7/Eb'
p154
ag153
aS'Eb/G'
p155
aS'Fm7/Ab'
p156
ag150
aS'Bb7'
p157
ag147
ag147
ag147
aS'Fm'
p158
ag153
ag155
ag155
aS'Bb7/F'
p159
ag147
ag150
ag151
ag151
aS'Gm/Bb'
p160
aS'Fm/Ab'
p161
ag155
ag157
ag147
ag155
aS'Eb7'
p162
ag152
ag147
ag149
aS'Bb7/D'
p163
ag147
ag153
ag155
ag147
ag150
ag157
ag151
ag152
ag147
ag150
ag147
ag149
ag148
ag151
ag156
ag150
ag157
ag147
aa(lp164
S'D'
aS'D'
aS'G/B'
p165
aS'A/C#'
p166
aS'D'
aS'A'
aS'Bm'
p167
aS'G'
aS'C#dim/E'
p168
aS'D'
aS'A'
aS'D'
ag166
aS'Bm7/D'
p169
ag168
aS'D/F#'
p170
aS'Em7/G'
p171
aS'A'
aS'A7'
p172
aS'D'
aS'D'
aS'D'
aS'Em'
p173
ag168
ag170
ag170
aS'A7/E'
p174
aS'D'
aS'A'
ag167
ag167
aS'F#m/A'
p175
aS'Em/G'
p176
ag170
ag172
aS'D'
ag170
aS'D7'
p177
aS'G'
aS'D'
ag166
aS'A7/C#'
p178
aS'D'
ag168
ag170
aS'D'
aS'A'
ag172
ag167
aS'G'
aS'D'
aS'A'
aS'D'
ag166
ag165
ag167
ag171
aS'A'
ag172
aS'D'
aa(lp179
S'Db'
p180
ag180
aS'Gb/Bb'
p181
aS'Ab/C'
p182
ag180
aS'Ab'
p183
aS'Bbm'
p184
aS'Gb'
p185
aS'Cdim/Eb'
p186
ag180
ag183
ag180
ag182
aS'Bbm7/Db'
p187
ag186
aS'Db/F'
p188
aS'Ebm7/Gb'
p189
ag183
aS'Ab7'
p190
ag180
ag180
ag180
aS'Ebm'
p191
ag186
ag188
ag188
aS'Ab7/Eb'
p192
ag180
ag183
ag184
ag184
aS'Fm/Ab'
p193
aS'Ebm/Gb'
p194
ag188
ag190
ag180
ag188
aS'Db7'
p195
ag185
ag180
ag182
aS'Ab7/C'
p196
ag180
ag186
ag188
ag180
ag183
ag190
ag184
ag185
ag180
ag183
ag180
ag182
ag181
ag184
ag189
ag183
ag190
ag180
aa(lp197
S'C'
ag5
ag8
aS'F'
aS'D/F#'
p198
aS'Cm'
p199
aS'G'
ag10
aS'C'
aS'C'
aS'F'
aS'G'
ag3
ag9
aS'C/G'
p200
aS'G'
ag10
aS'C'
aS'Em'
p201
ag3
aS'C'
aS'G'
ag8
ag15
aS'F'
aS'Bdim/F'
p202
ag8
aS'G'
ag6
ag199
aS'Bo7/D'
p203
aS'Cm/Eb'
p204
aS'Fm/Ab'
p205
aS'G'
ag199
ag201
ag5
ag10
ag8
ag11
ag6
aS'C'
ag8
aS'G'
ag11
ag5
aS'Dm7/C'
p206
ag4
aS'C'
aS'C'
ag3
ag200
aS'Fmaj7'
p207
aS'G'
ag10
aS'C'
aa(lp208
S'B'
ag21
ag24
aS'E'
aS'C#/F'
p209
aS'Bm'
p210
ag20
ag26
aS'B'
aS'B'
aS'E'
ag20
ag18
ag25
aS'B/F#'
p211
ag20
ag26
aS'B'
aS'D#m'
p212
ag18
aS'B'
ag20
ag24
ag31
aS'E'
aS'A#dim/E'
p213
ag24
ag20
ag22
ag210
aS'A#o7/C#'
p214
aS'Bm/D'
p215
aS'Em/G'
p216
ag20
ag210
ag212
ag21
ag26
ag24
ag27
ag22
aS'B'
ag24
ag20
ag27
ag21
aS'C#m7/B'
p217
ag19
aS'B'
aS'B'
ag18
ag211
aS'Emaj7'
p218
ag20
ag26
aS'B'
aa(lp219
g34
ag37
ag41
ag38
aS'C/E'
p220
aS'Bbm'
p221
aS'F'
ag43
ag34
ag34
ag38
aS'F'
ag35
ag42
aS'Bb/F'
p222
aS'F'
ag43
ag34
aS'Dm'
p223
ag35
ag34
aS'F'
ag41
ag48
ag38
aS'Adim/Eb'
p224
ag41
aS'F'
ag39
ag221
aS'Ao7/C'
p225
aS'Bbm/Db'
p226
aS'Ebm/Gb'
p227
aS'F'
ag221
ag223
ag37
ag43
ag41
ag44
ag39
ag34
ag41
aS'F'
ag44
ag37
aS'Cm7/Bb'
p228
ag36
ag34
ag34
ag35
ag222
aS'Ebmaj7'
p229
aS'F'
ag43
ag34
aa(lp230
S'A'
ag53
ag56
aS'D'
aS'B/D#'
p231
aS'Am'
p232
aS'E'
ag58
aS'A'
aS'A'
aS'D'
aS'E'
ag51
ag57
aS'A/E'
p233
aS'E'
ag58
aS'A'
aS'C#m'
p234
ag51
aS'A'
aS'E'
ag56
ag63
aS'D'
aS'G#dim/D'
p235
ag56
aS'E'
ag54
ag232
aS'G#o7/B'
p236
aS'Am/C'
p237
aS'Dm/F'
p238
aS'E'
ag232
ag234
ag53
ag58
ag56
ag59
ag54
aS'A'
ag56
aS'E'
ag59
ag53
aS'Bm7/A'
p239
ag52
aS'A'
aS'A'
ag51
ag233
aS'Dmaj7'
p240
aS'E'
ag58
aS'A'
aa(lp241
g66
ag70
ag74
ag71
aS'Bb/D'
p242
aS'Abm'
p243
ag69
ag76
ag66
ag66
ag71
ag69
ag67
ag75
aS'Ab/Eb'
p244
ag69
ag76
ag66
aS'Cm'
p245
ag67
ag66
ag69
ag74
ag81
ag71
aS'Gdim/Db'
p246
ag74
ag69
ag72
ag243
aS'Go7/Bb'
p247
aS'Abm/Cb'
p248
aS'Dbm/Fb'
p249
ag69
ag243
ag245
ag70
ag76
ag74
ag77
ag72
ag66
ag74
ag69
ag77
ag70
aS'Bbm7/Ab'
p250
ag68
ag66
ag66
ag67
ag244
aS'Dbmaj7'
p251
ag69
ag76
ag66
aa(lp252
S'G'
ag86
ag89
aS'C'
aS'A/C#'
p253
aS'Gm'
p254
aS'D'
ag91
aS'G'
aS'G'
aS'C'
aS'D'
ag84
ag90
aS'G/D'
p255
aS'D'
ag91
aS'G'
aS'Bm'
p256
ag84
aS'G'
aS'D'
ag89
ag96
aS'C'
aS'F#dim/C'
p257
ag89
aS'D'
ag87
ag254
aS'F#o7/A'
p258
aS'Gm/Bb'
p259
aS'Cm/Eb'
p260
aS'D'
ag254
ag256
ag86
ag91
ag89
ag92
ag87
aS'G'
ag89
aS'D'
ag92
ag86
aS'Am7/G'
p261
ag85
aS'G'
aS'G'
ag84
ag255
aS'Cmaj7'
p262
aS'D'
ag91
aS'G'
aa(lp263
g99
ag103
ag106
aS'B'
aS'Ab/C'
p264
aS'F#m'
p265
ag102
ag108
ag99
ag99
aS'B'
ag102
ag100
ag107
aS'F#/C#'
p266
ag102
ag108
ag99
aS'A#m'
p267
ag100
ag99
ag102
ag106
ag113
aS'B'
aS'Fdim/B'
p268
ag106
ag102
ag104
ag265
aS'Fo7/Ab'
p269
aS'F#m/A'
p270
aS'Bm/D'
p271
ag102
ag265
ag267
ag103
ag108
ag106
ag109
ag104
ag99
ag106
ag102
ag109
ag103
aS'G#m7/F#'
p272
ag101
ag99
ag99
ag100
ag266
aS'Bmaj7'
p273
ag102
ag108
ag99
aa(lp274
S'F'
ag118
ag122
ag119
aS'G/B'
p275
aS'Fm'
p276
aS'C'
ag124
aS'F'
aS'F'
ag119
aS'C'
ag116
ag123
aS'F/C'
p277
aS'C'
ag124
aS'F'
aS'Am'
p278
ag116
aS'F'
aS'C'
ag122
ag129
ag119
aS'Edim/Bb'
p279
ag122
aS'C'
ag120
ag276
aS'Eo7/G'
p280
aS'Fm/Ab'
p281
aS'Bbm/Db'
p282
aS'C'
ag276
ag278
ag118
ag124
ag122
ag125
ag120
aS'F'
ag122
aS'C'
ag125
ag118
aS'Gm7/F'
p283
ag117
aS'F'
aS'F'
ag116
ag277
aS'Bbmaj7'
p284
aS'C'
ag124
aS'F'
aa(lp285
S'E'
ag134
ag137
aS'A'
aS'F#/A#'
p286
aS'Em'
p287
aS'B'
ag139
aS'E'
aS'E'
aS'A'
aS'B'
ag132
ag138
aS'E/B'
p288
aS'B'
ag139
aS'E'
aS'G#m'
p289
ag132
aS'E'
aS'B'
ag137
ag144
aS'A'
aS'D#dim/A'
p290
ag137
aS'B'
ag135
ag287
aS'D#o7/F#'
p291
aS'Em/G'
p292
aS'Am/C'
p293
aS'B'
ag287
ag289
ag134
ag139
ag137
ag140
ag135
aS'E'
ag137
aS'B'
ag140
ag134
aS'F#m7/E'
p294
ag133
aS'E'
aS'E'
ag132
ag288
aS'Amaj7'
p295
aS'B'
ag139
aS'E'
aa(lp296
g147
ag151
ag155
ag152
aS'F/A'
p297
aS'Ebm'
p298
ag150
ag157
ag147
ag147
ag152
ag150
ag148
ag156
aS'Eb/Bb'
p299
ag150
ag157
ag147
aS'Gm'
p300
ag148
ag147
ag150
ag155
ag162
ag152
aS'Ddim/Ab'
p301
ag155
ag150
ag153
ag298
aS'Do7/F'
p302
aS'Ebm/Gb'
p303
aS'Abm/Cb'
p304
ag150
ag298
ag300
ag151
ag157
ag155
ag158
ag153
ag147
ag155
ag150
ag158
ag151
aS'Fm7/Eb'
p305
ag149
ag147
ag147
ag148
ag299
aS'Abmaj7'
p306
ag150
ag157
ag147
aa(lp307
S'D'
ag167
ag170
aS'G'
aS'E/G#'
p308
aS'Dm'
p309
aS'A'
ag172
aS'D'
aS'D'
aS'G'
aS'A'
ag165
ag171
aS'D/A'
p310
aS'A'
ag172
aS'D'
aS'F#m'
p311
ag165
aS'D'
aS'A'
ag170
ag177
aS'G'
aS'C#dim/G'
p312
ag170
aS'A'
ag168
ag309
aS'C#o7/E'
p313
aS'Dm/F'
p314
aS'Gm/Bb'
p315
aS'A'
ag309
ag311
ag167
ag172
ag170
ag173
ag168
aS'D'
ag170
aS'A'
ag173
ag167
aS'Em7/D'
p316
ag166
aS'D'
aS'D'
ag165
ag310
aS'Gmaj7'
p317
aS'A'
ag172
aS'D'
aa(lp318
g180
ag184
ag188
ag185
aS'Eb/G'
p319
aS'Dbm'
p320
ag183
ag190
ag180
ag180
ag185
ag183
ag181
ag189
aS'Db/Ab'
p321
ag183
ag190
ag180
aS'Fm'
p322
ag181
ag180
ag183
ag188
ag195
ag185
aS'Cdim/Gb'
p323
ag188
ag183
ag186
ag320
aS'Co7/Eb'
p324
aS'Dbm/Fb'
p325
aS'Gbm/Bbb'
p326
ag183
ag320
ag322
ag184
ag190
ag188
ag191
ag186
ag180
ag188
ag183
ag191
ag184
aS'Ebm7/Db'
p327
ag182
ag180
ag180
ag181
ag321
aS'Gbmaj7'
p328
ag183
ag190
ag180
aa(lp329
S'G'
ag199
ag6
ag204
ag12
ag199
ag4
ag16
ag199
aS'G'
ag203
ag204
aS'G'
ag10
aS'A'
aS'Ddim/F'
p330
aS'Cm/G'
p331
aS'G'
ag199
ag4
aS'C'
ag6
ag199
aS'G'
aS'G7/F'
p332
ag204
ag6
ag199
ag205
aS'G'
ag199
aS'A'
ag204
aS'G'
ag199
ag204
aS'G'
ag199
ag199
ag4
ag199
ag205
aS'Eo7'
p333
aS'F'
aS'F#o7'
p334
aS'G'
aa(lp335
g20
ag210
ag22
ag215
ag28
ag210
ag19
ag32
ag210
ag20
ag214
ag215
ag20
ag26
aS'G#'
p336
aS'C#dim/E'
p337
aS'Bm/F#'
p338
ag20
ag210
ag19
aS'B'
ag22
ag210
ag20
aS'F#7/E'
p339
ag215
ag22
ag210
ag216
ag20
ag210
ag336
ag215
ag20
ag210
ag215
ag20
ag210
ag210
ag19
ag210
ag216
aS'D#o7'
p340
aS'E'
aS'Fo7'
p341
ag20
aa(lp342
S'F'
ag221
ag39
ag226
ag45
ag221
ag36
ag49
ag221
aS'F'
ag225
ag226
aS'F'
ag43
aS'G'
aS'Cdim/Eb'
p343
aS'Bbm/F'
p344
aS'F'
ag221
ag36
ag34
ag39
ag221
aS'F'
aS'F7/Eb'
p345
ag226
ag39
ag221
ag227
aS'F'
ag221
aS'G'
ag226
aS'F'
ag221
ag226
aS'F'
ag221
ag221
ag36
ag221
ag227
aS'Do7'
p346
ag38
aS'Eo7'
p347
aS'F'
aa(lp348
S'E'
ag232
ag54
ag237
ag60
ag232
ag52
ag64
ag232
aS'E'
ag236
ag237
aS'E'
ag58
aS'F#'
p349
aS'Bdim/D'
p350
aS'Am/E'
p351
aS'E'
ag232
ag52
aS'A'
ag54
ag232
aS'E'
aS'E7/D'
p352
ag237
ag54
ag232
ag238
aS'E'
ag232
ag349
ag237
aS'E'
ag232
ag237
aS'E'
ag232
ag232
ag52
ag232
ag238
aS'C#o7'
p353
aS'D'
aS'D#o7'
p354
aS'E'
aa(lp355
g69
ag243
ag72
ag248
ag78
ag243
ag68
ag82
ag243
ag69
ag247
ag248
ag69
ag76
aS'F'
aS'Bbdim/Db'
p356
aS'Abm/Eb'
p357
ag69
ag243
ag68
ag66
ag72
ag243
ag69
aS'Eb7/Db'
p358
ag248
ag72
ag243
ag249
ag69
ag243
aS'F'
ag248
ag69
ag243
ag248
ag69
ag243
ag243
ag68
ag243
ag249
aS'Co7'
p359
ag71
aS'Do7'
p360
ag69
aa(lp361
S'D'
ag254
ag87
ag259
ag93
ag254
ag85
ag97
ag254
aS'D'
ag258
ag259
aS'D'
ag91
aS'E'
aS'Adim/C'
p362
aS'Gm/D'
p363
aS'D'
ag254
ag85
aS'G'
ag87
ag254
aS'D'
aS'D7/C'
p364
ag259
ag87
ag254
ag260
aS'D'
ag254
aS'E'
ag259
aS'D'
ag254
ag259
aS'D'
ag254
ag254
ag85
ag254
ag260
aS'Bo7'
p365
aS'C'
aS'C#o7'
p366
aS'D'
aa(lp367
g102
ag265
ag104
ag270
ag110
ag265
ag101
ag114
ag265
ag102
ag269
ag270
ag102
ag108
aS'D#'
p368
aS'G#dim/B'
p369
aS'F#m/C#'
p370
ag102
ag265
ag101
ag99
ag104
ag265
ag102
aS'C#7/B'
p371
ag270
ag104
ag265
ag271
ag102
ag265
ag368
ag270
ag102
ag265
ag270
ag102
ag265
ag265
ag101
ag265
ag271
aS'A#o7'
p372
aS'B'
aS'Co7'
p373
ag102
aa(lp374
S'C'
ag276
ag120
ag281
ag126
ag276
ag117
ag130
ag276
aS'C'
ag280
ag281
aS'C'
ag124
aS'D'
aS'Gdim/Bb'
p375
aS'Fm/C'
p376
aS'C'
ag276
ag117
aS'F'
ag120
ag276
aS'C'
aS'C7/Bb'
p377
ag281
ag120
ag276
ag282
aS'C'
ag276
aS'D'
ag281
aS'C'
ag276
ag281
aS'C'
ag276
ag276
ag117
ag276
ag282
aS'Ao7'
p378
ag119
aS'Bo7'
p379
aS'C'
aa(lp380
S'B'
ag287
ag135
ag292
ag141
ag287
ag133
ag145
ag287
aS'B'
ag291
ag292
aS'B'
ag139
aS'C#'
p381
aS'F#dim/A'
p382
aS'Em/B'
p383
aS'B'
ag287
ag133
aS'E'
ag135
ag287
aS'B'
aS'B7/A'
p384
ag292
ag135
ag287
ag293
aS'B'
ag287
ag381
ag292
aS'B'
ag287
ag292
aS'B'
ag287
ag287
ag133
ag287
ag293
aS'G#o7'
p385
aS'A'
aS'A#o7'
p386
aS'B'
aa(lp387
g150
ag298
ag153
ag303
ag159
ag298
ag149
ag163
ag298
ag150
ag302
ag303
ag150
ag157
aS'C'
aS'Fdim/Ab'
p388
aS'Ebm/Bb'
p389
ag150
ag298
ag149
ag147
ag153
ag298
ag150
aS'Bb7/Ab'
p390
ag303
ag153
ag298
ag304
ag150
ag298
aS'C'
ag303
ag150
ag298
ag303
ag150
ag298
ag298
ag149
ag298
ag304
aS'Go7'
p391
ag152
aS'Ao7'
p392
ag150
aa(lp393
S'A'
ag309
ag168
ag314
ag174
ag309
ag166
ag178
ag309
aS'A'
ag313
ag314
aS'A'
ag172
aS'B'
aS'Edim/G'
p394
aS'Dm/A'
p395
aS'A'
ag309
ag166
aS'D'
ag168
ag309
aS'A'
aS'A7/G'
p396
ag314
ag168
ag309
ag315
aS'A'
ag309
aS'B'
ag314
aS'A'
ag309
ag314
aS'A'
ag309
ag309
ag166
ag309
ag315
aS'F#o7'
p397
aS'G'
aS'G#o7'
p398
aS'A'
aa(lp399
g183
ag320
ag186
ag325
ag192
ag320
ag182
ag196
ag320
ag183
ag324
ag325
ag183
ag190
aS'Bb'
p400
aS'Ebdim/Gb'
p401
aS'Dbm/Ab'
p402
ag183
ag320
ag182
ag180
ag186
ag320
ag183
aS'Ab7/Gb'
p403
ag325
ag186
ag320
ag326
ag183
ag320
ag400
ag325
ag183
ag320
ag325
ag183
ag320
ag320
ag182
ag320
ag326
aS'Fo7'
p404
ag185
aS'Go7'
p405
ag183
aa(lp406
S'C'
ag4
ag10
aS'C'
ag3
aS'B/o7'
p407
aS'C'
ag10
aS'C'
ag4
aS'C'
ag8
ag5
aS'G'
ag332
ag8
aS'C'
ag10
aS'C'
aS'F'
ag11
ag6
ag8
aS'G'
aS'C'
ag3
aS'F'
aS'G'
aS'C'
aS'C'
ag8
aS'C'
aS'F'
ag5
aS'Bo7'
p408
ag199
aS'G'
aS'C'
aS'G'
ag3
aS'C'
aS'G'
ag198
aS'G'
aS'C'
aa(lp409
S'B'
ag19
ag26
aS'B'
ag18
aS'A#/o7'
p410
aS'B'
ag26
aS'B'
ag19
aS'B'
ag24
ag21
ag20
ag339
ag24
aS'B'
ag26
aS'B'
aS'E'
ag27
ag22
ag24
ag20
aS'B'
ag18
aS'E'
ag20
aS'B'
aS'B'
ag24
aS'B'
aS'E'
ag21
aS'A#o7'
p411
ag210
ag20
aS'B'
ag20
ag18
aS'B'
ag20
ag209
ag20
aS'B'
aa(lp412
g34
ag36
ag43
ag34
ag35
aS'A/o7'
p413
ag34
ag43
ag34
ag36
ag34
ag41
ag37
aS'F'
ag345
ag41
ag34
ag43
ag34
ag38
ag44
ag39
ag41
aS'F'
ag34
ag35
ag38
aS'F'
ag34
ag34
ag41
ag34
ag38
ag37
aS'Ao7'
p414
ag221
aS'F'
ag34
aS'F'
ag35
ag34
aS'F'
ag220
aS'F'
ag34
aa(lp415
S'A'
ag52
ag58
aS'A'
ag51
aS'G#/o7'
p416
aS'A'
ag58
aS'A'
ag52
aS'A'
ag56
ag53
aS'E'
ag352
ag56
aS'A'
ag58
aS'A'
aS'D'
ag59
ag54
ag56
aS'E'
aS'A'
ag51
aS'D'
aS'E'
aS'A'
aS'A'
ag56
aS'A'
aS'D'
ag53
aS'G#o7'
p417
ag232
aS'E'
aS'A'
aS'E'
ag51
aS'A'
aS'E'
ag231
aS'E'
aS'A'
aa(lp418
g66
ag68
ag76
ag66
ag67
aS'G/o7'
p419
ag66
ag76
ag66
ag68
ag66
ag74
ag70
ag69
ag358
ag74
ag66
ag76
ag66
ag71
ag77
ag72
ag74
ag69
ag66
ag67
ag71
ag69
ag66
ag66
ag74
ag66
ag71
ag70
aS'Go7'
p420
ag243
ag69
ag66
ag69
ag67
ag66
ag69
ag242
ag69
ag66
aa(lp421
S'G'
ag85
ag91
aS'G'
ag84
aS'F#/o7'
p422
aS'G'
ag91
aS'G'
ag85
aS'G'
ag89
ag86
aS'D'
ag364
ag89
aS'G'
ag91
aS'G'
aS'C'
ag92
ag87
ag89
aS'D'
aS'G'
ag84
aS'C'
aS'D'
aS'G'
aS'G'
ag89
aS'G'
aS'C'
ag86
aS'F#o7'
p423
ag254
aS'D'
aS'G'
aS'D'
ag84
aS'G'
aS'D'
ag253
aS'D'
aS'G'
aa(lp424
g99
ag101
ag108
ag99
ag100
aS'F/o7'
p425
ag99
ag108
ag99
ag101
ag99
ag106
ag103
ag102
ag371
ag106
ag99
ag108
ag99
aS'B'
ag109
ag104
ag106
ag102
ag99
ag100
aS'B'
ag102
ag99
ag99
ag106
ag99
aS'B'
ag103
aS'Fo7'
p426
ag265
ag102
ag99
ag102
ag100
ag99
ag102
ag264
ag102
ag99
aa(lp427
S'F'
ag117
ag124
aS'F'
ag116
aS'E/o7'
p428
aS'F'
ag124
aS'F'
ag117
aS'F'
ag122
ag118
aS'C'
ag377
ag122
aS'F'
ag124
aS'F'
ag119
ag125
ag120
ag122
aS'C'
aS'F'
ag116
ag119
aS'C'
aS'F'
aS'F'
ag122
aS'F'
ag119
ag118
aS'Eo7'
p429
ag276
aS'C'
aS'F'
aS'C'
ag116
aS'F'
aS'C'
ag275
aS'C'
aS'F'
aa(lp430
S'E'
ag133
ag139
aS'E'
ag132
aS'D#/o7'
p431
aS'E'
ag139
aS'E'
ag133
aS'E'
ag137
ag134
aS'B'
ag384
ag137
aS'E'
ag139
aS'E'
aS'A'
ag140
ag135
ag137
aS'B'
aS'E'
ag132
aS'A'
aS'B'
aS'E'
aS'E'
ag137
aS'E'
aS'A'
ag134
aS'D#o7'
p432
ag287
aS'B'
aS'E'
aS'B'
ag132
aS'E'
aS'B'
ag286
aS'B'
aS'E'
aa(lp433
g147
ag149
ag157
ag147
ag148
aS'D/o7'
p434
ag147
ag157
ag147
ag149
ag147
ag155
ag151
ag150
ag390
ag155
ag147
ag157
ag147
ag152
ag158
ag153
ag155
ag150
ag147
ag148
ag152
ag150
ag147
ag147
ag155
ag147
ag152
ag151
aS'Do7'
p435
ag298
ag150
ag147
ag150
ag148
ag147
ag150
ag297
ag150
ag147
aa(lp436
S'D'
ag166
ag172
aS'D'
ag165
aS'C#/o7'
p437
aS'D'
ag172
aS'D'
ag166
aS'D'
ag170
ag167
aS'A'
ag396
ag170
aS'D'
ag172
aS'D'
aS'G'
ag173
ag168
ag170
aS'A'
aS'D'
ag165
aS'G'
aS'A'
aS'D'
aS'D'
ag170
aS'D'
aS'G'
ag167
aS'C#o7'
p438
ag309
aS'A'
aS'D'
aS'A'
ag165
aS'D'
aS'A'
ag308
aS'A'
aS'D'
aa(lp439
g180
ag182
ag190
ag180
ag181
aS'C/o7'
p440
ag180
ag190
ag180
ag182
ag180
ag188
ag184
ag183
ag403
ag188
ag180
ag190
ag180
ag185
ag191
ag186
ag188
ag183
ag180
ag181
ag185
ag183
ag180
ag180
ag188
ag180
ag185
ag184
aS'Co7'
p441
ag320
ag183
ag180
ag183
ag181
ag180
ag183
ag319
ag183
ag180
aa(lp442
S'C'
aS'F'
aS'G'
ag10
ag5
ag4
ag11
aS'Dm7'
p443
ag10
aS'C'
ag4
aS'C'
ag3
ag8
aS'F'
aS'G'
ag10
aS'C'
aS'C'
ag4
ag13
ag3
ag4
aS'C'
ag10
aS'C'
aS'F'
aS'G'
ag332
ag8
ag16
aS'C'
ag11
ag10
aS'C'
aS'C'
aS'C'
aS'F'
ag4
ag16
ag4
ag199
aS'G'
ag4
ag16
ag199
ag204
ag205
ag330
ag331
ag10
ag199
ag199
ag6
ag8
ag407
ag199
aS'D/o7/C'
p444
ag4
ag16
ag199
ag10
aS'C'
ag201
ag5
aS'G'
aS'C'
ag5
ag201
aS'C'
ag9
ag443
aS'G'
ag10
aS'C'
aa(lp445
S'B'
aS'E'
ag20
ag26
ag21
ag19
ag27
aS'C#m7'
p446
ag26
aS'B'
ag19
aS'B'
ag18
ag24
aS'E'
ag20
ag26
aS'B'
aS'B'
ag19
ag29
ag18
ag19
aS'B'
ag26
aS'B'
aS'E'
ag20
ag339
ag24
ag32
aS'B'
ag27
ag26
aS'B'
aS'B'
aS'B'
aS'E'
ag19
ag32
ag19
ag210
ag20
ag19
ag32
ag210
ag215
ag216
ag337
ag338
ag26
ag210
ag210
ag22
ag24
ag410
ag210
aS'C#/o7/B'
p447
ag19
ag32
ag210
ag26
aS'B'
ag212
ag21
ag20
aS'B'
ag21
ag212
aS'B'
ag25
ag446
ag20
ag26
aS'B'
aa(lp448
g34
ag38
aS'F'
ag43
ag37
ag36
ag44
aS'Cm7'
p449
ag43
ag34
ag36
ag34
ag35
ag41
ag38
aS'F'
ag43
ag34
ag34
ag36
ag46
ag35
ag36
ag34
ag43
ag34
ag38
aS'F'
ag345
ag41
ag49
ag34
ag44
ag43
ag34
ag34
ag34
ag38
ag36
ag49
ag36
ag221
aS'F'
ag36
ag49
ag221
ag226
ag227
ag343
ag344
ag43
ag221
ag221
ag39
ag41
ag413
ag221
aS'C/o7/Bb'
p450
ag36
ag49
ag221
ag43
ag34
ag223
ag37
aS'F'
ag34
ag37
ag223
ag34
ag42
ag449
aS'F'
ag43
ag34
aa(lp451
S'A'
aS'D'
aS'E'
ag58
ag53
ag52
ag59
aS'Bm7'
p452
ag58
aS'A'
ag52
aS'A'
ag51
ag56
aS'D'
aS'E'
ag58
aS'A'
aS'A'
ag52
ag61
ag51
ag52
aS'A'
ag58
aS'A'
aS'D'
aS'E'
ag352
ag56
ag64
aS'A'
ag59
ag58
aS'A'
aS'A'
aS'A'
aS'D'
ag52
ag64
ag52
ag232
aS'E'
ag52
ag64
ag232
ag237
ag238
ag350
ag351
ag58
ag232
ag232
ag54
ag56
ag416
ag232
aS'B/o7/A'
p453
ag52
ag64
ag232
ag58
aS'A'
ag234
ag53
aS'E'
aS'A'
ag53
ag234
aS'A'
ag57
ag452
aS'E'
ag58
aS'A'
aa(lp454
g66
ag71
ag69
ag76
ag70
ag68
ag77
aS'Bbm7'
p455
ag76
ag66
ag68
ag66
ag67
ag74
ag71
ag69
ag76
ag66
ag66
ag68
ag79
ag67
ag68
ag66
ag76
ag66
ag71
ag69
ag358
ag74
ag82
ag66
ag77
ag76
ag66
ag66
ag66
ag71
ag68
ag82
ag68
ag243
ag69
ag68
ag82
ag243
ag248
ag249
ag356
ag357
ag76
ag243
ag243
ag72
ag74
ag419
ag243
aS'Bb/o7/Ab'
p456
ag68
ag82
ag243
ag76
ag66
ag245
ag70
ag69
ag66
ag70
ag245
ag66
ag75
ag455
ag69
ag76
ag66
aa(lp457
S'G'
aS'C'
aS'D'
ag91
ag86
ag85
ag92
aS'Am7'
p458
ag91
aS'G'
ag85
aS'G'
ag84
ag89
aS'C'
aS'D'
ag91
aS'G'
aS'G'
ag85
ag94
ag84
ag85
aS'G'
ag91
aS'G'
aS'C'
aS'D'
ag364
ag89
ag97
aS'G'
ag92
ag91
aS'G'
aS'G'
aS'G'
aS'C'
ag85
ag97
ag85
ag254
aS'D'
ag85
ag97
ag254
ag259
ag260
ag362
ag363
ag91
ag254
ag254
ag87
ag89
ag422
ag254
aS'A/o7/G'
p459
ag85
ag97
ag254
ag91
aS'G'
ag256
ag86
aS'D'
aS'G'
ag86
ag256
aS'G'
ag90
ag458
aS'D'
ag91
aS'G'
aa(lp460
g99
aS'B'
ag102
ag108
ag103
ag101
ag109
aS'G#m7'
p461
ag108
ag99
ag101
ag99
ag100
ag106
aS'B'
ag102
ag108
ag99
ag99
ag101
ag111
ag100
ag101
ag99
ag108
ag99
aS'B'
ag102
ag371
ag106
ag114
ag99
ag109
ag108
ag99
ag99
ag99
aS'B'
ag101
ag114
ag101
ag265
ag102
ag101
ag114
ag265
ag270
ag271
ag369
ag370
ag108
ag265
ag265
ag104
ag106
ag425
ag265
aS'G#/o7/F#'
p462
ag101
ag114
ag265
ag108
ag99
ag267
ag103
ag102
ag99
ag103
ag267
ag99
ag107
ag461
ag102
ag108
ag99
aa(lp463
S'F'
ag119
aS'C'
ag124
ag118
ag117
ag125
aS'Gm7'
p464
ag124
aS'F'
ag117
aS'F'
ag116
ag122
ag119
aS'C'
ag124
aS'F'
aS'F'
ag117
ag127
ag116
ag117
aS'F'
ag124
aS'F'
ag119
aS'C'
ag377
ag122
ag130
aS'F'
ag125
ag124
aS'F'
aS'F'
aS'F'
ag119
ag117
ag130
ag117
ag276
aS'C'
ag117
ag130
ag276
ag281
ag282
ag375
ag376
ag124
ag276
ag276
ag120
ag122
ag428
ag276
aS'G/o7/F'
p465
ag117
ag130
ag276
ag124
aS'F'
ag278
ag118
aS'C'
aS'F'
ag118
ag278
aS'F'
ag123
ag464
aS'C'
ag124
aS'F'
aa(lp466
S'E'
aS'A'
aS'B'
ag139
ag134
ag133
ag140
aS'F#m7'
p467
ag139
aS'E'
ag133
aS'E'
ag132
ag137
aS'A'
aS'B'
ag139
aS'E'
aS'E'
ag133
ag142
ag132
ag133
aS'E'
ag139
aS'E'
aS'A'
aS'B'
ag384
ag137
ag145
aS'E'
ag140
ag139
aS'E'
aS'E'
aS'E'
aS'A'
ag133
ag145
ag133
ag287
aS'B'
ag133
ag145
ag287
ag292
ag293
ag382
ag383
ag139
ag287
ag287
ag135
ag137
ag431
ag287
aS'F#/o7/E'
p468
ag133
ag145
ag287
ag139
aS'E'
ag289
ag134
aS'B'
aS'E'
ag134
ag289
aS'E'
ag138
ag467
aS'B'
ag139
aS'E'
aa(lp469
g147
ag152
ag150
ag157
ag151
ag149
ag158
aS'Fm7'
p470
ag157
ag147
ag149
ag147
ag148
ag155
ag152
ag150
ag157
ag147
ag147
ag149
ag160
ag148
ag149
ag147
ag157
ag147
ag152
ag150
ag390
ag155
ag163
ag147
ag158
ag157
ag147
ag147
ag147
ag152
ag149
ag163
ag149
ag298
ag150
ag149
ag163
ag298
ag303
ag304
ag388
ag389
ag157
ag298
ag298
ag153
ag155
ag434
ag298
aS'F/o7/Eb'
p471
ag149
ag163
ag298
ag157
ag147
ag300
ag151
ag150
ag147
ag151
ag300
ag147
ag156
ag470
ag150
ag157
ag147
aa(lp472
S'D'
aS'G'
aS'A'
ag172
ag167
ag166
ag173
aS'Em7'
p473
ag172
aS'D'
ag166
aS'D'
ag165
ag170
aS'G'
aS'A'
ag172
aS'D'
aS'D'
ag166
ag175
ag165
ag166
aS'D'
ag172
aS'D'
aS'G'
aS'A'
ag396
ag170
ag178
aS'D'
ag173
ag172
aS'D'
aS'D'
aS'D'
aS'G'
ag166
ag178
ag166
ag309
aS'A'
ag166
ag178
ag309
ag314
ag315
ag394
ag395
ag172
ag309
ag309
ag168
ag170
ag437
ag309
aS'E/o7/D'
p474
ag166
ag178
ag309
ag172
aS'D'
ag311
ag167
aS'A'
aS'D'
ag167
ag311
aS'D'
ag171
ag473
aS'A'
ag172
aS'D'
aa(lp475
g180
ag185
ag183
ag190
ag184
ag182
ag191
aS'Ebm7'
p476
ag190
ag180
ag182
ag180
ag181
ag188
ag185
ag183
ag190
ag180
ag180
ag182
ag193
ag181
ag182
ag180
ag190
ag180
ag185
ag183
ag403
ag188
ag196
ag180
ag191
ag190
ag180
ag180
ag180
ag185
ag182
ag196
ag182
ag320
ag183
ag182
ag196
ag320
ag325
ag326
ag401
ag402
ag190
ag320
ag320
ag186
ag188
ag440
ag320
aS'Eb/o7/Db'
p477
ag182
ag196
ag320
ag190
ag180
ag322
ag184
ag183
ag180
ag184
ag322
ag180
ag189
ag476
ag183
ag190
ag180
aa(lp478
S'C'
aS'C'
ag4
aS'C7/Bb'
p479
ag3
aS'G'
aS'C'
aS'F'
ag8
ag443
ag6
aS'C'
aS'G'
aS'C'
aS'C'
ag16
aS'C'
ag11
ag5
ag9
aS'G'
aS'C'
aS'F'
ag6
ag8
ag9
aS'G'
ag10
aS'C'
aa(lp480
S'B'
aS'B'
ag19
aS'B7/A'
p481
ag18
ag20
aS'B'
aS'E'
ag24
ag446
ag22
aS'B'
ag20
aS'B'
aS'B'
ag32
aS'B'
ag27
ag21
ag25
ag20
aS'B'
aS'E'
ag22
ag24
ag25
ag20
ag26
aS'B'
aa(lp482
g34
ag34
ag36
aS'Bb7/Ab'
p483
ag35
aS'F'
ag34
ag38
ag41
ag449
ag39
ag34
aS'F'
ag34
ag34
ag49
ag34
ag44
ag37
ag42
aS'F'
ag34
ag38
ag39
ag41
ag42
aS'F'
ag43
ag34
aa(lp484
S'A'
aS'A'
ag52
aS'A7/G'
p485
ag51
aS'E'
aS'A'
aS'D'
ag56
ag452
ag54
aS'A'
aS'E'
aS'A'
aS'A'
ag64
aS'A'
ag59
ag53
ag57
aS'E'
aS'A'
aS'D'
ag54
ag56
ag57
aS'E'
ag58
aS'A'
aa(lp486
g66
ag66
ag68
aS'Ab7/Gb'
p487
ag67
ag69
ag66
ag71
ag74
ag455
ag72
ag66
ag69
ag66
ag66
ag82
ag66
ag77
ag70
ag75
ag69
ag66
ag71
ag72
ag74
ag75
ag69
ag76
ag66
aa(lp488
S'G'
aS'G'
ag85
aS'G7/F'
p489
ag84
aS'D'
aS'G'
aS'C'
ag89
ag458
ag87
aS'G'
aS'D'
aS'G'
aS'G'
ag97
aS'G'
ag92
ag86
ag90
aS'D'
aS'G'
aS'C'
ag87
ag89
ag90
aS'D'
ag91
aS'G'
aa(lp490
g99
ag99
ag101
aS'F#7/E'
p491
ag100
ag102
ag99
aS'B'
ag106
ag461
ag104
ag99
ag102
ag99
ag99
ag114
ag99
ag109
ag103
ag107
ag102
ag99
aS'B'
ag104
ag106
ag107
ag102
ag108
ag99
aa(lp492
S'F'
aS'F'
ag117
aS'F7/Eb'
p493
ag116
aS'C'
aS'F'
ag119
ag122
ag464
ag120
aS'F'
aS'C'
aS'F'
aS'F'
ag130
aS'F'
ag125
ag118
ag123
aS'C'
aS'F'
ag119
ag120
ag122
ag123
aS'C'
ag124
aS'F'
aa(lp494
S'E'
aS'E'
ag133
aS'E7/D'
p495
ag132
aS'B'
aS'E'
aS'A'
ag137
ag467
ag135
aS'E'
aS'B'
aS'E'
aS'E'
ag145
aS'E'
ag140
ag134
ag138
aS'B'
aS'E'
aS'A'
ag135
ag137
ag138
aS'B'
ag139
aS'E'
aa(lp496
g147
ag147
ag149
aS'Eb7/Db'
p497
ag148
ag150
ag147
ag152
ag155
ag470
ag153
ag147
ag150
ag147
ag147
ag163
ag147
ag158
ag151
ag156
ag150
ag147
ag152
ag153
ag155
ag156
ag150
ag157
ag147
aa(lp498
S'D'
aS'D'
ag166
aS'D7/C'
p499
ag165
aS'A'
aS'D'
aS'G'
ag170
ag473
ag168
aS'D'
aS'A'
aS'D'
aS'D'
ag178
aS'D'
ag173
ag167
ag171
aS'A'
aS'D'
aS'G'
ag168
ag170
ag171
aS'A'
ag172
aS'D'
aa(lp500
g180
ag180
ag182
aS'Db7/Cb'
p501
ag181
ag183
ag180
ag185
ag188
ag476
ag186
ag180
ag183
ag180
ag180
ag196
ag180
ag191
ag184
ag189
ag183
ag180
ag185
ag186
ag188
ag189
ag183
ag190
ag180
aa(lp502
S'C'
ag5
ag201
aS'F'
ag332
ag8
ag9
aS'G'
aS'C'
aS'C'
aS'E/G#'
p503
aS'E7'
p504
ag5
ag332
ag8
ag9
aS'G'
aS'C'
aS'C'
aS'F'
aS'C'
ag6
ag4
ag199
aS'D/o7/F'
p505
aS'G'
ag199
ag16
aS'C'
ag479
ag3
ag9
aS'G'
ag10
aS'C'
ag5
ag5
ag3
ag4
aS'G'
aS'C'
ag10
aS'C'
ag4
ag5
aS'F'
aS'Ddim'
p506
ag10
aS'A'
ag10
aS'C'
aS'G'
aS'C'
ag5
ag11
aS'F'
ag407
aS'C'
aS'G'
ag4
ag16
aS'C'
aS'F'
aS'G'
ag10
aS'C'
ag5
ag11
ag6
aS'C'
aS'G'
ag10
ag5
aS'Gm/Bb'
p507
aS'Bb7'
p508
ag407
aS'C'
ag503
ag3
ag16
aS'C'
aS'G'
ag10
ag5
ag9
ag200
aS'G'
ag10
aS'C'
aa(lp509
S'B'
ag21
ag212
aS'E'
ag339
ag24
ag25
ag20
aS'B'
aS'B'
aS'Eb/G'
p510
aS'D#7'
p511
ag21
ag339
ag24
ag25
ag20
aS'B'
aS'B'
aS'E'
aS'B'
ag22
ag19
ag210
aS'C#/o7/E'
p512
ag20
ag210
ag32
aS'B'
ag481
ag18
ag25
ag20
ag26
aS'B'
ag21
ag21
ag18
ag19
ag20
aS'B'
ag26
aS'B'
ag19
ag21
aS'E'
aS'C#dim'
p513
ag26
ag336
ag26
aS'B'
ag20
aS'B'
ag21
ag27
aS'E'
ag410
aS'B'
ag20
ag19
ag32
aS'B'
aS'E'
ag20
ag26
aS'B'
ag21
ag27
ag22
aS'B'
ag20
ag26
ag21
aS'F#m/A'
p514
aS'A7'
p515
ag410
aS'B'
ag510
ag18
ag32
aS'B'
ag20
ag26
ag21
ag25
ag211
ag20
ag26
aS'B'
aa(lp516
g34
ag37
ag223
ag38
ag345
ag41
ag42
aS'F'
ag34
ag34
aS'D/F#'
p517
aS'D7'
p518
ag37
ag345
ag41
ag42
aS'F'
ag34
ag34
ag38
ag34
ag39
ag36
ag221
aS'C/o7/Eb'
p519
aS'F'
ag221
ag49
ag34
ag483
ag35
ag42
aS'F'
ag43
ag34
ag37
ag37
ag35
ag36
aS'F'
ag34
ag43
ag34
ag36
ag37
ag38
aS'Cdim'
p520
ag43
aS'G'
ag43
ag34
aS'F'
ag34
ag37
ag44
ag38
ag413
ag34
aS'F'
ag36
ag49
ag34
ag38
aS'F'
ag43
ag34
ag37
ag44
ag39
ag34
aS'F'
ag43
ag37
aS'Fm/Ab'
p521
aS'Ab7'
p522
ag413
ag34
ag517
ag35
ag49
ag34
aS'F'
ag43
ag37
ag42
ag222
aS'F'
ag43
ag34
aa(lp523
S'A'
ag53
ag234
aS'D'
ag352
ag56
ag57
aS'E'
aS'A'
aS'A'
aS'C#/F'
p524
aS'C#7'
p525
ag53
ag352
ag56
ag57
aS'E'
aS'A'
aS'A'
aS'D'
aS'A'
ag54
ag52
ag232
aS'B/o7/D'
p526
aS'E'
ag232
ag64
aS'A'
ag485
ag51
ag57
aS'E'
ag58
aS'A'
ag53
ag53
ag51
ag52
aS'E'
aS'A'
ag58
aS'A'
ag52
ag53
aS'D'
aS'Bdim'
p527
ag58
ag349
ag58
aS'A'
aS'E'
aS'A'
ag53
ag59
aS'D'
ag416
aS'A'
aS'E'
ag52
ag64
aS'A'
aS'D'
aS'E'
ag58
aS'A'
ag53
ag59
ag54
aS'A'
aS'E'
ag58
ag53
aS'Em/G'
p528
aS'G7'
p529
ag416
aS'A'
ag524
ag51
ag64
aS'A'
aS'E'
ag58
ag53
ag57
ag233
aS'E'
ag58
aS'A'
aa(lp530
g66
ag70
ag245
ag71
ag358
ag74
ag75
ag69
ag66
ag66
aS'C/E'
p531
aS'C7'
p532
ag70
ag358
ag74
ag75
ag69
ag66
ag66
ag71
ag66
ag72
ag68
ag243
aS'Bb/o7/Db'
p533
ag69
ag243
ag82
ag66
ag487
ag67
ag75
ag69
ag76
ag66
ag70
ag70
ag67
ag68
ag69
ag66
ag76
ag66
ag68
ag70
ag71
aS'Bbdim'
p534
ag76
aS'F'
ag76
ag66
ag69
ag66
ag70
ag77
ag71
ag419
ag66
ag69
ag68
ag82
ag66
ag71
ag69
ag76
ag66
ag70
ag77
ag72
ag66
ag69
ag76
ag70
aS'Ebm/Gb'
p535
aS'Gb7'
p536
ag419
ag66
ag531
ag67
ag82
ag66
ag69
ag76
ag70
ag75
ag244
ag69
ag76
ag66
aa(lp537
S'G'
ag86
ag256
aS'C'
ag364
ag89
ag90
aS'D'
aS'G'
aS'G'
aS'B/D#'
p538
aS'B7'
p539
ag86
ag364
ag89
ag90
aS'D'
aS'G'
aS'G'
aS'C'
aS'G'
ag87
ag85
ag254
aS'A/o7/C'
p540
aS'D'
ag254
ag97
aS'G'
ag489
ag84
ag90
aS'D'
ag91
aS'G'
ag86
ag86
ag84
ag85
aS'D'
aS'G'
ag91
aS'G'
ag85
ag86
aS'C'
aS'Adim'
p541
ag91
aS'E'
ag91
aS'G'
aS'D'
aS'G'
ag86
ag92
aS'C'
ag422
aS'G'
aS'D'
ag85
ag97
aS'G'
aS'C'
aS'D'
ag91
aS'G'
ag86
ag92
ag87
aS'G'
aS'D'
ag91
ag86
aS'Dm/F'
p542
aS'F7'
p543
ag422
aS'G'
ag538
ag84
ag97
aS'G'
aS'D'
ag91
ag86
ag90
ag255
aS'D'
ag91
aS'G'
aa(lp544
g99
ag103
ag267
aS'B'
ag371
ag106
ag107
ag102
ag99
ag99
aS'Bb/D'
p545
aS'A#7'
p546
ag103
ag371
ag106
ag107
ag102
ag99
ag99
aS'B'
ag99
ag104
ag101
ag265
aS'G#/o7/B'
p547
ag102
ag265
ag114
ag99
ag491
ag100
ag107
ag102
ag108
ag99
ag103
ag103
ag100
ag101
ag102
ag99
ag108
ag99
ag101
ag103
aS'B'
aS'G#dim'
p548
ag108
ag368
ag108
ag99
ag102
ag99
ag103
ag109
aS'B'
ag425
ag99
ag102
ag101
ag114
ag99
aS'B'
ag102
ag108
ag99
ag103
ag109
ag104
ag99
ag102
ag108
ag103
aS'C#m/E'
p549
aS'E7'
p550
ag425
ag99
ag545
ag100
ag114
ag99
ag102
ag108
ag103
ag107
ag266
ag102
ag108
ag99
aa(lp551
S'F'
ag118
ag278
ag119
ag377
ag122
ag123
aS'C'
aS'F'
aS'F'
aS'A/C#'
p552
aS'A7'
p553
ag118
ag377
ag122
ag123
aS'C'
aS'F'
aS'F'
ag119
aS'F'
ag120
ag117
ag276
aS'G/o7/Bb'
p554
aS'C'
ag276
ag130
aS'F'
ag493
ag116
ag123
aS'C'
ag124
aS'F'
ag118
ag118
ag116
ag117
aS'C'
aS'F'
ag124
aS'F'
ag117
ag118
ag119
aS'Gdim'
p555
ag124
aS'D'
ag124
aS'F'
aS'C'
aS'F'
ag118
ag125
ag119
ag428
aS'F'
aS'C'
ag117
ag130
aS'F'
ag119
aS'C'
ag124
aS'F'
ag118
ag125
ag120
aS'F'
aS'C'
ag124
ag118
aS'Cm/Eb'
p556
aS'Eb7'
p557
ag428
aS'F'
ag552
ag116
ag130
aS'F'
aS'C'
ag124
ag118
ag123
ag277
aS'C'
ag124
aS'F'
aa(lp558
S'E'
ag134
ag289
aS'A'
ag384
ag137
ag138
aS'B'
aS'E'
aS'E'
aS'Ab/C'
p559
aS'G#7'
p560
ag134
ag384
ag137
ag138
aS'B'
aS'E'
aS'E'
aS'A'
aS'E'
ag135
ag133
ag287
aS'F#/o7/A'
p561
aS'B'
ag287
ag145
aS'E'
ag495
ag132
ag138
aS'B'
ag139
aS'E'
ag134
ag134
ag132
ag133
aS'B'
aS'E'
ag139
aS'E'
ag133
ag134
aS'A'
aS'F#dim'
p562
ag139
ag381
ag139
aS'E'
aS'B'
aS'E'
ag134
ag140
aS'A'
ag431
aS'E'
aS'B'
ag133
ag145
aS'E'
aS'A'
aS'B'
ag139
aS'E'
ag134
ag140
ag135
aS'E'
aS'B'
ag139
ag134
aS'Bm/D'
p563
aS'D7'
p564
ag431
aS'E'
ag559
ag132
ag145
aS'E'
aS'B'
ag139
ag134
ag138
ag288
aS'B'
ag139
aS'E'
aa(lp565
g147
ag151
ag300
ag152
ag390
ag155
ag156
ag150
ag147
ag147
aS'G/B'
p566
aS'G7'
p567
ag151
ag390
ag155
ag156
ag150
ag147
ag147
ag152
ag147
ag153
ag149
ag298
aS'F/o7/Ab'
p568
ag150
ag298
ag163
ag147
ag497
ag148
ag156
ag150
ag157
ag147
ag151
ag151
ag148
ag149
ag150
ag147
ag157
ag147
ag149
ag151
ag152
aS'Fdim'
p569
ag157
aS'C'
ag157
ag147
ag150
ag147
ag151
ag158
ag152
ag434
ag147
ag150
ag149
ag163
ag147
ag152
ag150
ag157
ag147
ag151
ag158
ag153
ag147
ag150
ag157
ag151
aS'Bbm/Db'
p570
aS'Db7'
p571
ag434
ag147
ag566
ag148
ag163
ag147
ag150
ag157
ag151
ag156
ag299
ag150
ag157
ag147
aa(lp572
S'D'
ag167
ag311
aS'G'
ag396
ag170
ag171
aS'A'
aS'D'
aS'D'
aS'F#/A#'
p573
aS'F#7'
p574
ag167
ag396
ag170
ag171
aS'A'
aS'D'
aS'D'
aS'G'
aS'D'
ag168
ag166
ag309
aS'E/o7/G'
p575
aS'A'
ag309
ag178
aS'D'
ag499
ag165
ag171
aS'A'
ag172
aS'D'
ag167
ag167
ag165
ag166
aS'A'
aS'D'
ag172
aS'D'
ag166
ag167
aS'G'
aS'Edim'
p576
ag172
aS'B'
ag172
aS'D'
aS'A'
aS'D'
ag167
ag173
aS'G'
ag437
aS'D'
aS'A'
ag166
ag178
aS'D'
aS'G'
aS'A'
ag172
aS'D'
ag167
ag173
ag168
aS'D'
aS'A'
ag172
ag167
aS'Am/C'
p577
aS'C7'
p578
ag437
aS'D'
ag573
ag165
ag178
aS'D'
aS'A'
ag172
ag167
ag171
ag310
aS'A'
ag172
aS'D'
aa(lp579
g180
ag184
ag322
ag185
ag403
ag188
ag189
ag183
ag180
ag180
aS'F/A'
p580
aS'F7'
p581
ag184
ag403
ag188
ag189
ag183
ag180
ag180
ag185
ag180
ag186
ag182
ag320
aS'Eb/o7/Gb'
p582
ag183
ag320
ag196
ag180
ag501
ag181
ag189
ag183
ag190
ag180
ag184
ag184
ag181
ag182
ag183
ag180
ag190
ag180
ag182
ag184
ag185
aS'Ebdim'
p583
ag190
ag400
ag190
ag180
ag183
ag180
ag184
ag191
ag185
ag440
ag180
ag183
ag182
ag196
ag180
ag185
ag183
ag190
ag180
ag184
ag191
ag186
ag180
ag183
ag190
ag184
aS'Abm/Cb'
p584
aS'Cb7'
p585
ag440
ag180
ag580
ag181
ag196
ag180
ag183
ag190
ag184
ag189
ag321
ag183
ag190
ag180
aa(lp586
g199
aS'C7/Bb'
p587
ag205
ag331
ag505
aS'G'
ag10
ag199
ag199
ag199
ag202
ag8
aS'C'
ag9
aS'G'
ag10
aS'C'
aS'A'
ag330
ag10
aS'A'
ag505
aS'G'
ag10
ag199
aS'G'
ag199
aS'G'
aS'C'
aS'C'
aS'F'
ag11
ag505
aS'G'
ag10
ag199
ag332
ag204
aS'D/o7'
p588
ag6
ag199
ag505
aS'G'
ag10
ag199
ag199
ag204
aS'Gm'
p589
ag507
aS'G'
ag10
aS'C'
aS'C'
aS'A'
aS'A/E'
p590
ag11
ag6
ag8
aS'G'
ag10
aS'C'
aS'C'
aS'F'
ag11
aS'G'
ag332
ag201
ag5
ag204
ag199
aS'G'
aS'C'
aa(lp591
g210
aS'B7/A'
p592
ag216
ag338
ag512
ag20
ag26
ag210
ag210
ag210
ag213
ag24
aS'B'
ag25
ag20
ag26
aS'B'
ag336
ag337
ag26
ag336
ag512
ag20
ag26
ag210
ag20
ag210
ag20
aS'B'
aS'B'
aS'E'
ag27
ag512
ag20
ag26
ag210
ag339
ag215
aS'C#/o7'
p593
ag22
ag210
ag512
ag20
ag26
ag210
ag210
ag215
aS'F#m'
p594
ag514
ag20
ag26
aS'B'
aS'B'
aS'G#'
p595
aS'G#/D#'
p596
ag27
ag22
ag24
ag20
ag26
aS'B'
aS'B'
aS'E'
ag27
ag20
ag339
ag212
ag21
ag215
ag210
ag20
aS'B'
aa(lp597
g221
aS'Bb7/Ab'
p598
ag227
ag344
ag519
aS'F'
ag43
ag221
ag221
ag221
ag224
ag41
ag34
ag42
aS'F'
ag43
ag34
aS'G'
ag343
ag43
aS'G'
ag519
aS'F'
ag43
ag221
aS'F'
ag221
aS'F'
ag34
ag34
ag38
ag44
ag519
aS'F'
ag43
ag221
ag345
ag226
aS'C/o7'
p599
ag39
ag221
ag519
aS'F'
ag43
ag221
ag221
ag226
aS'Fm'
p600
ag521
aS'F'
ag43
ag34
ag34
aS'G'
aS'G/D'
p601
ag44
ag39
ag41
aS'F'
ag43
ag34
ag34
ag38
ag44
aS'F'
ag345
ag223
ag37
ag226
ag221
aS'F'
ag34
aa(lp602
g232
aS'A7/G'
p603
ag238
ag351
ag526
aS'E'
ag58
ag232
ag232
ag232
ag235
ag56
aS'A'
ag57
aS'E'
ag58
aS'A'
ag349
ag350
ag58
ag349
ag526
aS'E'
ag58
ag232
aS'E'
ag232
aS'E'
aS'A'
aS'A'
aS'D'
ag59
ag526
aS'E'
ag58
ag232
ag352
ag237
aS'B/o7'
p604
ag54
ag232
ag526
aS'E'
ag58
ag232
ag232
ag237
aS'Em'
p605
ag528
aS'E'
ag58
aS'A'
aS'A'
aS'F#'
p606
aS'F#/C#'
p607
ag59
ag54
ag56
aS'E'
ag58
aS'A'
aS'A'
aS'D'
ag59
aS'E'
ag352
ag234
ag53
ag237
ag232
aS'E'
aS'A'
aa(lp608
g243
aS'Ab7/Gb'
p609
ag249
ag357
ag533
ag69
ag76
ag243
ag243
ag243
ag246
ag74
ag66
ag75
ag69
ag76
ag66
aS'F'
ag356
ag76
aS'F'
ag533
ag69
ag76
ag243
ag69
ag243
ag69
ag66
ag66
ag71
ag77
ag533
ag69
ag76
ag243
ag358
ag248
aS'Bb/o7'
p610
ag72
ag243
ag533
ag69
ag76
ag243
ag243
ag248
aS'Ebm'
p611
ag535
ag69
ag76
ag66
ag66
aS'F'
aS'F/C'
p612
ag77
ag72
ag74
ag69
ag76
ag66
ag66
ag71
ag77
ag69
ag358
ag245
ag70
ag248
ag243
ag69
ag66
aa(lp613
g254
aS'G7/F'
p614
ag260
ag363
ag540
aS'D'
ag91
ag254
ag254
ag254
ag257
ag89
aS'G'
ag90
aS'D'
ag91
aS'G'
aS'E'
ag362
ag91
aS'E'
ag540
aS'D'
ag91
ag254
aS'D'
ag254
aS'D'
aS'G'
aS'G'
aS'C'
ag92
ag540
aS'D'
ag91
ag254
ag364
ag259
aS'A/o7'
p615
ag87
ag254
ag540
aS'D'
ag91
ag254
ag254
ag259
aS'Dm'
p616
ag542
aS'D'
ag91
aS'G'
aS'G'
aS'E'
aS'E/B'
p617
ag92
ag87
ag89
aS'D'
ag91
aS'G'
aS'G'
aS'C'
ag92
aS'D'
ag364
ag256
ag86
ag259
ag254
aS'D'
aS'G'
aa(lp618
g265
aS'F#7/E'
p619
ag271
ag370
ag547
ag102
ag108
ag265
ag265
ag265
ag268
ag106
ag99
ag107
ag102
ag108
ag99
ag368
ag369
ag108
ag368
ag547
ag102
ag108
ag265
ag102
ag265
ag102
ag99
ag99
aS'B'
ag109
ag547
ag102
ag108
ag265
ag371
ag270
aS'G#/o7'
p620
ag104
ag265
ag547
ag102
ag108
ag265
ag265
ag270
aS'C#m'
p621
ag549
ag102
ag108
ag99
ag99
aS'D#'
p622
aS'D#/A#'
p623
ag109
ag104
ag106
ag102
ag108
ag99
ag99
aS'B'
ag109
ag102
ag371
ag267
ag103
ag270
ag265
ag102
ag99
aa(lp624
g276
aS'F7/Eb'
p625
ag282
ag376
ag554
aS'C'
ag124
ag276
ag276
ag276
ag279
ag122
aS'F'
ag123
aS'C'
ag124
aS'F'
aS'D'
ag375
ag124
aS'D'
ag554
aS'C'
ag124
ag276
aS'C'
ag276
aS'C'
aS'F'
aS'F'
ag119
ag125
ag554
aS'C'
ag124
ag276
ag377
ag281
aS'G/o7'
p626
ag120
ag276
ag554
aS'C'
ag124
ag276
ag276
ag281
aS'Cm'
p627
ag556
aS'C'
ag124
aS'F'
aS'F'
aS'D'
aS'D/A'
p628
ag125
ag120
ag122
aS'C'
ag124
aS'F'
aS'F'
ag119
ag125
aS'C'
ag377
ag278
ag118
ag281
ag276
aS'C'
aS'F'
aa(lp629
g287
aS'E7/D'
p630
ag293
ag383
ag561
aS'B'
ag139
ag287
ag287
ag287
ag290
ag137
aS'E'
ag138
aS'B'
ag139
aS'E'
ag381
ag382
ag139
ag381
ag561
aS'B'
ag139
ag287
aS'B'
ag287
aS'B'
aS'E'
aS'E'
aS'A'
ag140
ag561
aS'B'
ag139
ag287
ag384
ag292
aS'F#/o7'
p631
ag135
ag287
ag561
aS'B'
ag139
ag287
ag287
ag292
aS'Bm'
p632
ag563
aS'B'
ag139
aS'E'
aS'E'
aS'C#'
p633
aS'C#/G#'
p634
ag140
ag135
ag137
aS'B'
ag139
aS'E'
aS'E'
aS'A'
ag140
aS'B'
ag384
ag289
ag134
ag292
ag287
aS'B'
aS'E'
aa(lp635
g298
aS'Eb7/Db'
p636
ag304
ag389
ag568
ag150
ag157
ag298
ag298
ag298
ag301
ag155
ag147
ag156
ag150
ag157
ag147
aS'C'
ag388
ag157
aS'C'
ag568
ag150
ag157
ag298
ag150
ag298
ag150
ag147
ag147
ag152
ag158
ag568
ag150
ag157
ag298
ag390
ag303
aS'F/o7'
p637
ag153
ag298
ag568
ag150
ag157
ag298
ag298
ag303
aS'Bbm'
p638
ag570
ag150
ag157
ag147
ag147
aS'C'
aS'C/G'
p639
ag158
ag153
ag155
ag150
ag157
ag147
ag147
ag152
ag158
ag150
ag390
ag300
ag151
ag303
ag298
ag150
ag147
aa(lp640
g309
aS'D7/C'
p641
ag315
ag395
ag575
aS'A'
ag172
ag309
ag309
ag309
ag312
ag170
aS'D'
ag171
aS'A'
ag172
aS'D'
aS'B'
ag394
ag172
aS'B'
ag575
aS'A'
ag172
ag309
aS'A'
ag309
aS'A'
aS'D'
aS'D'
aS'G'
ag173
ag575
aS'A'
ag172
ag309
ag396
ag314
aS'E/o7'
p642
ag168
ag309
ag575
aS'A'
ag172
ag309
ag309
ag314
aS'Am'
p643
ag577
aS'A'
ag172
aS'D'
aS'D'
aS'B'
aS'B/F#'
p644
ag173
ag168
ag170
aS'A'
ag172
aS'D'
aS'D'
aS'G'
ag173
aS'A'
ag396
ag311
ag167
ag314
ag309
aS'A'
aS'D'
aa(lp645
g320
aS'Db7/Cb'
p646
ag326
ag402
ag582
ag183
ag190
ag320
ag320
ag320
ag323
ag188
ag180
ag189
ag183
ag190
ag180
ag400
ag401
ag190
ag400
ag582
ag183
ag190
ag320
ag183
ag320
ag183
ag180
ag180
ag185
ag191
ag582
ag183
ag190
ag320
ag403
ag325
aS'Eb/o7'
p647
ag186
ag320
ag582
ag183
ag190
ag320
ag320
ag325
aS'Abm'
p648
ag584
ag183
ag190
ag180
ag180
aS'Bb'
p649
aS'Bb/F'
p650
ag191
ag186
ag188
ag183
ag190
ag180
ag180
ag185
ag191
ag183
ag403
ag322
ag184
ag325
ag320
ag183
ag180
aa(lp651
S'C'
ag5
ag10
aS'C'
ag332
ag8
aS'G'
ag10
aS'C'
ag503
aS'E7/G#'
p652
ag3
ag407
aS'C'
ag207
ag332
aS'C'
aS'G'
ag10
aS'C'
aS'G'
aS'G'
ag6
ag199
aS'F#/o7'
p653
aS'G'
ag10
ag199
ag199
ag12
ag204
aS'C7/E'
p654
aS'Fm'
p655
aS'D7/F#'
p656
aS'G'
ag10
ag199
aS'G'
ag8
aS'C'
ag3
aS'Bdim'
p657
aS'C'
ag5
ag656
aS'D7'
p658
aS'G'
ag8
aS'F'
ag10
aS'Fmaj7/A'
p659
ag657
aS'C'
ag9
aS'G'
aS'C'
aa(lp660
S'B'
ag21
ag26
aS'B'
ag339
ag24
ag20
ag26
aS'B'
ag510
aS'Eb7/G'
p661
ag18
ag410
aS'B'
ag218
ag339
aS'B'
ag20
ag26
aS'B'
ag20
ag20
ag22
ag210
aS'F/o7'
p662
ag20
ag26
ag210
ag210
ag28
ag215
aS'B7/D#'
p663
aS'Em'
p664
aS'C#7/F'
p665
ag20
ag26
ag210
ag20
ag24
aS'B'
ag18
aS'A#dim'
p666
aS'B'
ag21
ag665
aS'C#7'
p667
ag20
ag24
aS'E'
ag26
aS'Emaj7/G#'
p668
ag666
aS'B'
ag25
ag20
aS'B'
aa(lp669
g34
ag37
ag43
ag34
ag345
ag41
aS'F'
ag43
ag34
ag517
aS'D7/F#'
p670
ag35
ag413
ag34
ag229
ag345
ag34
aS'F'
ag43
ag34
aS'F'
aS'F'
ag39
ag221
aS'E/o7'
p671
aS'F'
ag43
ag221
ag221
ag45
ag226
aS'Bb7/D'
p672
aS'Ebm'
p673
aS'C7/E'
p674
aS'F'
ag43
ag221
aS'F'
ag41
ag34
ag35
aS'Adim'
p675
ag34
ag37
ag674
aS'C7'
p676
aS'F'
ag41
ag38
ag43
aS'Ebmaj7/G'
p677
ag675
ag34
ag42
aS'F'
ag34
aa(lp678
S'A'
ag53
ag58
aS'A'
ag352
ag56
aS'E'
ag58
aS'A'
ag524
aS'C#7/F'
p679
ag51
ag416
aS'A'
ag240
ag352
aS'A'
aS'E'
ag58
aS'A'
aS'E'
aS'E'
ag54
ag232
aS'D#/o7'
p680
aS'E'
ag58
ag232
ag232
ag60
ag237
aS'A7/C#'
p681
aS'Dm'
p682
aS'B7/D#'
p683
aS'E'
ag58
ag232
aS'E'
ag56
aS'A'
ag51
aS'G#dim'
p684
aS'A'
ag53
ag683
aS'B7'
p685
aS'E'
ag56
aS'D'
ag58
aS'Dmaj7/F#'
p686
ag684
aS'A'
ag57
aS'E'
aS'A'
aa(lp687
g66
ag70
ag76
ag66
ag358
ag74
ag69
ag76
ag66
ag531
aS'C7/E'
p688
ag67
ag419
ag66
ag251
ag358
ag66
ag69
ag76
ag66
ag69
ag69
ag72
ag243
aS'D/o7'
p689
ag69
ag76
ag243
ag243
ag78
ag248
aS'Ab7/C'
p690
aS'Dbm'
p691
aS'Bb7/D'
p692
ag69
ag76
ag243
ag69
ag74
ag66
ag67
aS'Gdim'
p693
ag66
ag70
ag692
aS'Bb7'
p694
ag69
ag74
ag71
ag76
aS'Dbmaj7/F'
p695
ag693
ag66
ag75
ag69
ag66
aa(lp696
S'G'
ag86
ag91
aS'G'
ag364
ag89
aS'D'
ag91
aS'G'
ag538
aS'B7/D#'
p697
ag84
ag422
aS'G'
ag262
ag364
aS'G'
aS'D'
ag91
aS'G'
aS'D'
aS'D'
ag87
ag254
aS'C#/o7'
p698
aS'D'
ag91
ag254
ag254
ag93
ag259
aS'G7/B'
p699
aS'Cm'
p700
aS'A7/C#'
p701
aS'D'
ag91
ag254
aS'D'
ag89
aS'G'
ag84
aS'F#dim'
p702
aS'G'
ag86
ag701
aS'A7'
p703
aS'D'
ag89
aS'C'
ag91
aS'Cmaj7/E'
p704
ag702
aS'G'
ag90
aS'D'
aS'G'
aa(lp705
g99
ag103
ag108
ag99
ag371
ag106
ag102
ag108
ag99
ag545
aS'Bb7/D'
p706
ag100
ag425
ag99
ag273
ag371
ag99
ag102
ag108
ag99
ag102
ag102
ag104
ag265
aS'C/o7'
p707
ag102
ag108
ag265
ag265
ag110
ag270
aS'F#7/A#'
p708
aS'Bm'
p709
aS'Ab7/C'
p710
ag102
ag108
ag265
ag102
ag106
ag99
ag100
aS'Fdim'
p711
ag99
ag103
ag710
aS'G#7'
p712
ag102
ag106
aS'B'
ag108
aS'Bmaj7/D#'
p713
ag711
ag99
ag107
ag102
ag99
aa(lp714
S'F'
ag118
ag124
aS'F'
ag377
ag122
aS'C'
ag124
aS'F'
ag552
aS'A7/C#'
p715
ag116
ag428
aS'F'
ag284
ag377
aS'F'
aS'C'
ag124
aS'F'
aS'C'
aS'C'
ag120
ag276
aS'B/o7'
p716
aS'C'
ag124
ag276
ag276
ag126
ag281
aS'F7/A'
p717
aS'Bbm'
p718
aS'G7/B'
p719
aS'C'
ag124
ag276
aS'C'
ag122
aS'F'
ag116
aS'Edim'
p720
aS'F'
ag118
ag719
aS'G7'
p721
aS'C'
ag122
ag119
ag124
aS'Bbmaj7/D'
p722
ag720
aS'F'
ag123
aS'C'
aS'F'
aa(lp723
S'E'
ag134
ag139
aS'E'
ag384
ag137
aS'B'
ag139
aS'E'
ag559
aS'Ab7/C'
p724
ag132
ag431
aS'E'
ag295
ag384
aS'E'
aS'B'
ag139
aS'E'
aS'B'
aS'B'
ag135
ag287
aS'A#/o7'
p725
aS'B'
ag139
ag287
ag287
ag141
ag292
aS'E7/G#'
p726
aS'Am'
p727
aS'F#7/A#'
p728
aS'B'
ag139
ag287
aS'B'
ag137
aS'E'
ag132
aS'D#dim'
p729
aS'E'
ag134
ag728
aS'F#7'
p730
aS'B'
ag137
aS'A'
ag139
aS'Amaj7/C#'
p731
ag729
aS'E'
ag138
aS'B'
aS'E'
aa(lp732
g147
ag151
ag157
ag147
ag390
ag155
ag150
ag157
ag147
ag566
aS'G7/B'
p733
ag148
ag434
ag147
ag306
ag390
ag147
ag150
ag157
ag147
ag150
ag150
ag153
ag298
aS'A/o7'
p734
ag150
ag157
ag298
ag298
ag159
ag303
aS'Eb7/G'
p735
aS'Abm'
p736
aS'F7/A'
p737
ag150
ag157
ag298
ag150
ag155
ag147
ag148
aS'Ddim'
p738
ag147
ag151
ag737
aS'F7'
p739
ag150
ag155
ag152
ag157
aS'Abmaj7/C'
p740
ag738
ag147
ag156
ag150
ag147
aa(lp741
S'D'
ag167
ag172
aS'D'
ag396
ag170
aS'A'
ag172
aS'D'
ag573
aS'F#7/A#'
p742
ag165
ag437
aS'D'
ag317
ag396
aS'D'
aS'A'
ag172
aS'D'
aS'A'
aS'A'
ag168
ag309
aS'G#/o7'
p743
aS'A'
ag172
ag309
ag309
ag174
ag314
aS'D7/F#'
p744
aS'Gm'
p745
aS'E7/G#'
p746
aS'A'
ag172
ag309
aS'A'
ag170
aS'D'
ag165
aS'C#dim'
p747
aS'D'
ag167
ag746
aS'E7'
p748
aS'A'
ag170
aS'G'
ag172
aS'Gmaj7/B'
p749
ag747
aS'D'
ag171
aS'A'
aS'D'
aa(lp750
g180
ag184
ag190
ag180
ag403
ag188
ag183
ag190
ag180
ag580
aS'F7/A'
p751
ag181
ag440
ag180
ag328
ag403
ag180
ag183
ag190
ag180
ag183
ag183
ag186
ag320
aS'G/o7'
p752
ag183
ag190
ag320
ag320
ag192
ag325
aS'Db7/F'
p753
aS'Gbm'
p754
aS'Eb7/G'
p755
ag183
ag190
ag320
ag183
ag188
ag180
ag181
aS'Cdim'
p756
ag180
ag184
ag755
aS'Eb7'
p757
ag183
ag188
ag185
ag190
aS'Gbmaj7/Bb'
p758
ag756
ag180
ag189
ag183
ag180
aa(lp759
g332
ag204
ag6
ag199
aS'B/D#'
p760
aS'E'
aS'Adim/C'
p761
aS'G'
ag199
ag10
ag332
ag8
aS'F'
aS'C'
ag11
aS'G'
ag204
ag760
ag199
aS'A#dim/C#'
p762
aS'B'
ag205
ag330
aS'G'
ag199
ag199
ag589
aS'E'
ag4
ag16
aS'C'
ag200
ag10
aS'C'
aS'F'
ag5
aS'E'
ag504
aS'F'
aS'C'
ag205
ag331
ag656
ag199
aS'G'
aa(lp763
g339
ag215
ag22
ag210
aS'Bb/D'
p764
aS'D#'
p765
aS'G#dim/B'
p766
ag20
ag210
ag26
ag339
ag24
aS'E'
aS'B'
ag27
ag20
ag215
ag764
ag210
aS'Adim/C'
p767
aS'A#'
p768
ag216
ag337
ag20
ag210
ag210
ag594
ag765
ag19
ag32
aS'B'
ag211
ag26
aS'B'
aS'E'
ag21
aS'D#'
p769
ag511
aS'E'
aS'B'
ag216
ag338
ag665
ag210
ag20
aa(lp770
g345
ag226
ag39
ag221
aS'A/C#'
p771
aS'D'
aS'Gdim/Bb'
p772
aS'F'
ag221
ag43
ag345
ag41
ag38
ag34
ag44
aS'F'
ag226
ag771
ag221
aS'G#dim/B'
p773
aS'A'
ag227
ag343
aS'F'
ag221
ag221
ag600
aS'D'
ag36
ag49
ag34
ag222
ag43
ag34
ag38
ag37
aS'D'
ag518
ag38
ag34
ag227
ag344
ag674
ag221
aS'F'
aa(lp774
g352
ag237
ag54
ag232
aS'Ab/C'
p775
aS'C#'
p776
aS'F#dim/A'
p777
aS'E'
ag232
ag58
ag352
ag56
aS'D'
aS'A'
ag59
aS'E'
ag237
ag775
ag232
aS'Gdim/Bb'
p778
aS'G#'
p779
ag238
ag350
aS'E'
ag232
ag232
ag605
ag776
ag52
ag64
aS'A'
ag233
ag58
aS'A'
aS'D'
ag53
aS'C#'
p780
ag525
aS'D'
aS'A'
ag238
ag351
ag683
ag232
aS'E'
aa(lp781
g358
ag248
ag72
ag243
aS'G/B'
p782
aS'C'
aS'Fdim/Ab'
p783
ag69
ag243
ag76
ag358
ag74
ag71
ag66
ag77
ag69
ag248
ag782
ag243
aS'F#dim/A'
p784
aS'G'
ag249
ag356
ag69
ag243
ag243
ag611
aS'C'
ag68
ag82
ag66
ag244
ag76
ag66
ag71
ag70
aS'C'
ag532
ag71
ag66
ag249
ag357
ag692
ag243
ag69
aa(lp785
g364
ag259
ag87
ag254
aS'F#/A#'
p786
aS'B'
aS'Edim/G'
p787
aS'D'
ag254
ag91
ag364
ag89
aS'C'
aS'G'
ag92
aS'D'
ag259
ag786
ag254
aS'Fdim/Ab'
p788
aS'F#'
p789
ag260
ag362
aS'D'
ag254
ag254
ag616
aS'B'
ag85
ag97
aS'G'
ag255
ag91
aS'G'
aS'C'
ag86
aS'B'
ag539
aS'C'
aS'G'
ag260
ag363
ag701
ag254
aS'D'
aa(lp790
g371
ag270
ag104
ag265
aS'F/A'
p791
aS'A#'
p792
aS'D#dim/F#'
p793
ag102
ag265
ag108
ag371
ag106
aS'B'
ag99
ag109
ag102
ag270
ag791
ag265
aS'Eb#dim/G'
p794
aS'F'
ag271
ag369
ag102
ag265
ag265
ag621
ag792
ag101
ag114
ag99
ag266
ag108
ag99
aS'B'
ag103
aS'A#'
p795
ag546
aS'B'
ag99
ag271
ag370
ag710
ag265
ag102
aa(lp796
g377
ag281
ag120
ag276
aS'E/G#'
p797
aS'A'
aS'Ddim/F'
p798
aS'C'
ag276
ag124
ag377
ag122
ag119
aS'F'
ag125
aS'C'
ag281
ag797
ag276
aS'D#dim/F#'
p799
aS'E'
ag282
ag375
aS'C'
ag276
ag276
ag627
aS'A'
ag117
ag130
aS'F'
ag277
ag124
aS'F'
ag119
ag118
aS'A'
ag553
ag119
aS'F'
ag282
ag376
ag719
ag276
aS'C'
aa(lp800
g384
ag292
ag135
ag287
aS'Eb/G'
p801
aS'G#'
p802
aS'C#dim/E'
p803
aS'B'
ag287
ag139
ag384
ag137
aS'A'
aS'E'
ag140
aS'B'
ag292
ag801
ag287
aS'Ddim/F'
p804
aS'D#'
p805
ag293
ag382
aS'B'
ag287
ag287
ag632
ag802
ag133
ag145
aS'E'
ag288
ag139
aS'E'
aS'A'
ag134
aS'G#'
p806
ag560
aS'A'
aS'E'
ag293
ag383
ag728
ag287
aS'B'
aa(lp807
g390
ag303
ag153
ag298
aS'D/F#'
p808
aS'G'
aS'Cdim/Eb'
p809
ag150
ag298
ag157
ag390
ag155
ag152
ag147
ag158
ag150
ag303
ag808
ag298
aS'C#dim/E'
p810
aS'D'
ag304
ag388
ag150
ag298
ag298
ag638
aS'G'
ag149
ag163
ag147
ag299
ag157
ag147
ag152
ag151
aS'G'
ag567
ag152
ag147
ag304
ag389
ag737
ag298
ag150
aa(lp811
g396
ag314
ag168
ag309
aS'C#/F'
p812
aS'F#'
p813
aS'Bdim/D'
p814
aS'A'
ag309
ag172
ag396
ag170
aS'G'
aS'D'
ag173
aS'A'
ag314
ag812
ag309
aS'Cdim/D#'
p815
aS'C#'
p816
ag315
ag394
aS'A'
ag309
ag309
ag643
ag813
ag166
ag178
aS'D'
ag310
ag172
aS'D'
aS'G'
ag167
aS'F#'
p817
ag574
aS'G'
aS'D'
ag315
ag395
ag746
ag309
aS'A'
aa(lp818
g403
ag325
ag186
ag320
aS'C/E'
p819
aS'F'
aS'Bbdim/Db'
p820
ag183
ag320
ag190
ag403
ag188
ag185
ag180
ag191
ag183
ag325
ag819
ag320
aS'Bdim/D'
p821
aS'C'
ag326
ag401
ag183
ag320
ag320
ag648
aS'F'
ag182
ag196
ag180
ag321
ag190
ag180
ag185
ag184
aS'F'
ag581
ag185
ag180
ag326
ag402
ag755
ag320
ag183
aa(lp822
S'C'
aS'C'
ag4
ag479
ag3
aS'C'
aS'F'
aS'A/C#'
p823
aS'G'
ag332
ag8
aS'F'
aS'G'
aS'C'
aS'G'
aS'C'
ag12
ag8
aS'C'
aS'F'
ag10
aS'C'
ag4
aS'G'
ag5
ag9
aS'G'
ag10
aS'C'
aS'G'
aS'C'
ag652
ag5
aS'G/D'
p824
ag199
ag505
aS'D/o7/Ab'
p825
ag507
aS'G'
ag332
ag12
aS'C'
aS'C'
aS'C'
ag4
aS'Am7'
p826
ag4
aS'G'
ag3
ag407
aS'C'
aS'G'
ag331
ag825
aS'G'
ag10
aS'A'
ag331
ag505
ag199
ag589
ag4
ag16
ag199
ag205
aS'B/o7/F'
p827
ag8
ag443
ag10
aS'C'
ag16
ag199
ag204
ag6
aS'Bo7/F'
p828
aS'C/E'
p829
ag655
aS'C'
ag589
aS'B'
ag332
ag8
ag443
aS'G'
aS'G'
ag332
ag8
ag200
aS'G'
ag10
aS'C'
aa(lp830
S'B'
aS'B'
ag19
ag481
ag18
aS'B'
aS'E'
aS'Ab/C'
p831
ag20
ag339
ag24
aS'E'
ag20
aS'B'
ag20
aS'B'
ag28
ag24
aS'B'
aS'E'
ag26
aS'B'
ag19
ag20
ag21
ag25
ag20
ag26
aS'B'
ag20
aS'B'
ag661
ag21
aS'F#/C#'
p832
ag210
ag512
aS'C#/o7/G'
p833
ag514
ag20
ag339
ag28
aS'B'
aS'B'
aS'B'
ag19
aS'G#m7'
p834
ag19
ag20
ag18
ag410
aS'B'
ag20
ag338
ag833
ag20
ag26
ag336
ag338
ag512
ag210
ag594
ag19
ag32
ag210
ag216
aS'A#/o7/E'
p835
ag24
ag446
ag26
aS'B'
ag32
ag210
ag215
ag22
aS'A#o7/E'
p836
aS'B/D#'
p837
ag664
aS'B'
ag594
ag768
ag339
ag24
ag446
ag20
ag20
ag339
ag24
ag211
ag20
ag26
aS'B'
aa(lp838
g34
ag34
ag36
ag483
ag35
ag34
ag38
aS'G/B'
p839
aS'F'
ag345
ag41
ag38
aS'F'
ag34
aS'F'
ag34
ag45
ag41
ag34
ag38
ag43
ag34
ag36
aS'F'
ag37
ag42
aS'F'
ag43
ag34
aS'F'
ag34
ag670
ag37
aS'F/C'
p840
ag221
ag519
aS'C/o7/Gb'
p841
ag521
aS'F'
ag345
ag45
ag34
ag34
ag34
ag36
aS'Gm7'
p842
ag36
aS'F'
ag35
ag413
ag34
aS'F'
ag344
ag841
aS'F'
ag43
aS'G'
ag344
ag519
ag221
ag600
ag36
ag49
ag221
ag227
aS'A/o7/Eb'
p843
ag41
ag449
ag43
ag34
ag49
ag221
ag226
ag39
aS'Ao7/Eb'
p844
aS'Bb/D'
p845
ag673
ag34
ag600
aS'A'
ag345
ag41
ag449
aS'F'
aS'F'
ag345
ag41
ag222
aS'F'
ag43
ag34
aa(lp846
S'A'
aS'A'
ag52
ag485
ag51
aS'A'
aS'D'
aS'F#/A#'
p847
aS'E'
ag352
ag56
aS'D'
aS'E'
aS'A'
aS'E'
aS'A'
ag60
ag56
aS'A'
aS'D'
ag58
aS'A'
ag52
aS'E'
ag53
ag57
aS'E'
ag58
aS'A'
aS'E'
aS'A'
ag679
ag53
aS'E/B'
p848
ag232
ag526
aS'B/o7/F'
p849
ag528
aS'E'
ag352
ag60
aS'A'
aS'A'
aS'A'
ag52
aS'F#m7'
p850
ag52
aS'E'
ag51
ag416
aS'A'
aS'E'
ag351
ag849
aS'E'
ag58
ag349
ag351
ag526
ag232
ag605
ag52
ag64
ag232
ag238
aS'G#/o7/D'
p851
ag56
ag452
ag58
aS'A'
ag64
ag232
ag237
ag54
aS'G#o7/D'
p852
aS'A/C#'
p853
ag682
aS'A'
ag605
ag779
ag352
ag56
ag452
aS'E'
aS'E'
ag352
ag56
ag233
aS'E'
ag58
aS'A'
aa(lp854
g66
ag66
ag68
ag487
ag67
ag66
ag71
aS'F/A'
p855
ag69
ag358
ag74
ag71
ag69
ag66
ag69
ag66
ag78
ag74
ag66
ag71
ag76
ag66
ag68
ag69
ag70
ag75
ag69
ag76
ag66
ag69
ag66
ag688
ag70
aS'Eb/Bb'
p856
ag243
ag533
aS'Bb/o7/Fb'
p857
ag535
ag69
ag358
ag78
ag66
ag66
ag66
ag68
aS'Fm7'
p858
ag68
ag69
ag67
ag419
ag66
ag69
ag357
ag857
ag69
ag76
aS'F'
ag357
ag533
ag243
ag611
ag68
ag82
ag243
ag249
aS'G/o7/Db'
p859
ag74
ag455
ag76
ag66
ag82
ag243
ag248
ag72
aS'Go7/Db'
p860
aS'Ab/C'
p861
ag691
ag66
ag611
aS'G'
ag358
ag74
ag455
ag69
ag69
ag358
ag74
ag244
ag69
ag76
ag66
aa(lp862
S'G'
aS'G'
ag85
ag489
ag84
aS'G'
aS'C'
aS'E/G#'
p863
aS'D'
ag364
ag89
aS'C'
aS'D'
aS'G'
aS'D'
aS'G'
ag93
ag89
aS'G'
aS'C'
ag91
aS'G'
ag85
aS'D'
ag86
ag90
aS'D'
ag91
aS'G'
aS'D'
aS'G'
ag697
ag86
aS'D/A'
p864
ag254
ag540
aS'A/o7/Eb'
p865
ag542
aS'D'
ag364
ag93
aS'G'
aS'G'
aS'G'
ag85
aS'Em7'
p866
ag85
aS'D'
ag84
ag422
aS'G'
aS'D'
ag363
ag865
aS'D'
ag91
aS'E'
ag363
ag540
ag254
ag616
ag85
ag97
ag254
ag260
aS'F#/o7/C'
p867
ag89
ag458
ag91
aS'G'
ag97
ag254
ag259
ag87
aS'F#o7/C'
p868
aS'G/B'
p869
ag700
aS'G'
ag616
ag789
ag364
ag89
ag458
aS'D'
aS'D'
ag364
ag89
ag255
aS'D'
ag91
aS'G'
aa(lp870
g99
ag99
ag101
ag491
ag100
ag99
aS'B'
aS'Eb/G'
p871
ag102
ag371
ag106
aS'B'
ag102
ag99
ag102
ag99
ag110
ag106
ag99
aS'B'
ag108
ag99
ag101
ag102
ag103
ag107
ag102
ag108
ag99
ag102
ag99
ag706
ag103
aS'C#/G#'
p872
ag265
ag547
aS'G#/o7/D'
p873
ag549
ag102
ag371
ag110
ag99
ag99
ag99
ag101
aS'D#m7'
p874
ag101
ag102
ag100
ag425
ag99
ag102
ag370
ag873
ag102
ag108
ag368
ag370
ag547
ag265
ag621
ag101
ag114
ag265
ag271
aS'F/o7/B'
p875
ag106
ag461
ag108
ag99
ag114
ag265
ag270
ag104
aS'Fo7/B'
p876
aS'F#/A#'
p877
ag709
ag99
ag621
aS'F'
ag371
ag106
ag461
ag102
ag102
ag371
ag106
ag266
ag102
ag108
ag99
aa(lp878
S'F'
aS'F'
ag117
ag493
ag116
aS'F'
ag119
aS'D/F#'
p879
aS'C'
ag377
ag122
ag119
aS'C'
aS'F'
aS'C'
aS'F'
ag126
ag122
aS'F'
ag119
ag124
aS'F'
ag117
aS'C'
ag118
ag123
aS'C'
ag124
aS'F'
aS'C'
aS'F'
ag715
ag118
aS'C/G'
p880
ag276
ag554
aS'G/o7/Db'
p881
ag556
aS'C'
ag377
ag126
aS'F'
aS'F'
aS'F'
ag117
aS'Dm7'
p882
ag117
aS'C'
ag116
ag428
aS'F'
aS'C'
ag376
ag881
aS'C'
ag124
aS'D'
ag376
ag554
ag276
ag627
ag117
ag130
ag276
ag282
aS'E/o7/Bb'
p883
ag122
ag464
ag124
aS'F'
ag130
ag276
ag281
ag120
aS'Eo7/Bb'
p884
aS'F/A'
p885
ag718
aS'F'
ag627
aS'E'
ag377
ag122
ag464
aS'C'
aS'C'
ag377
ag122
ag277
aS'C'
ag124
aS'F'
aa(lp886
S'E'
aS'E'
ag133
ag495
ag132
aS'E'
aS'A'
aS'C#/F'
p887
aS'B'
ag384
ag137
aS'A'
aS'B'
aS'E'
aS'B'
aS'E'
ag141
ag137
aS'E'
aS'A'
ag139
aS'E'
ag133
aS'B'
ag134
ag138
aS'B'
ag139
aS'E'
aS'B'
aS'E'
ag724
ag134
aS'B/F#'
p888
ag287
ag561
aS'F#/o7/C'
p889
ag563
aS'B'
ag384
ag141
aS'E'
aS'E'
aS'E'
ag133
aS'C#m7'
p890
ag133
aS'B'
ag132
ag431
aS'E'
aS'B'
ag383
ag889
aS'B'
ag139
ag381
ag383
ag561
ag287
ag632
ag133
ag145
ag287
ag293
aS'D#/o7/A'
p891
ag137
ag467
ag139
aS'E'
ag145
ag287
ag292
ag135
aS'D#o7/A'
p892
aS'E/G#'
p893
ag727
aS'E'
ag632
ag805
ag384
ag137
ag467
aS'B'
aS'B'
ag384
ag137
ag288
aS'B'
ag139
aS'E'
aa(lp894
g147
ag147
ag149
ag497
ag148
ag147
ag152
aS'C/E'
p895
ag150
ag390
ag155
ag152
ag150
ag147
ag150
ag147
ag159
ag155
ag147
ag152
ag157
ag147
ag149
ag150
ag151
ag156
ag150
ag157
ag147
ag150
ag147
ag733
ag151
aS'Bb/F'
p896
ag298
ag568
aS'F/o7/Cb'
p897
ag570
ag150
ag390
ag159
ag147
ag147
ag147
ag149
aS'Cm7'
p898
ag149
ag150
ag148
ag434
ag147
ag150
ag389
ag897
ag150
ag157
aS'C'
ag389
ag568
ag298
ag638
ag149
ag163
ag298
ag304
aS'D/o7/Ab'
p899
ag155
ag470
ag157
ag147
ag163
ag298
ag303
ag153
aS'Do7/Ab'
p900
aS'Eb/G'
p901
ag736
ag147
ag638
aS'D'
ag390
ag155
ag470
ag150
ag150
ag390
ag155
ag299
ag150
ag157
ag147
aa(lp902
S'D'
aS'D'
ag166
ag499
ag165
aS'D'
aS'G'
aS'B/D#'
p903
aS'A'
ag396
ag170
aS'G'
aS'A'
aS'D'
aS'A'
aS'D'
ag174
ag170
aS'D'
aS'G'
ag172
aS'D'
ag166
aS'A'
ag167
ag171
aS'A'
ag172
aS'D'
aS'A'
aS'D'
ag742
ag167
aS'A/E'
p904
ag309
ag575
aS'E/o7/Bb'
p905
ag577
aS'A'
ag396
ag174
aS'D'
aS'D'
aS'D'
ag166
aS'Bm7'
p906
ag166
aS'A'
ag165
ag437
aS'D'
aS'A'
ag395
ag905
aS'A'
ag172
aS'B'
ag395
ag575
ag309
ag643
ag166
ag178
ag309
ag315
aS'C#/o7/G'
p907
ag170
ag473
ag172
aS'D'
ag178
ag309
ag314
ag168
aS'C#o7/G'
p908
aS'D/F#'
p909
ag745
aS'D'
ag643
ag816
ag396
ag170
ag473
aS'A'
aS'A'
ag396
ag170
ag310
aS'A'
ag172
aS'D'
aa(lp910
g180
ag180
ag182
ag501
ag181
ag180
ag185
aS'Bb/D'
p911
ag183
ag403
ag188
ag185
ag183
ag180
ag183
ag180
ag192
ag188
ag180
ag185
ag190
ag180
ag182
ag183
ag184
ag189
ag183
ag190
ag180
ag183
ag180
ag751
ag184
aS'Ab/Eb'
p912
ag320
ag582
aS'Eb/o7/Bbb'
p913
ag584
ag183
ag403
ag192
ag180
ag180
ag180
ag182
aS'Bbm7'
p914
ag182
ag183
ag181
ag440
ag180
ag183
ag402
ag913
ag183
ag190
ag400
ag402
ag582
ag320
ag648
ag182
ag196
ag320
ag326
aS'C/o7/Gb'
p915
ag188
ag476
ag190
ag180
ag196
ag320
ag325
ag186
aS'Co7/Gb'
p916
aS'Db/F'
p917
ag754
ag180
ag648
aS'C'
ag403
ag188
ag476
ag183
ag183
ag403
ag188
ag321
ag183
ag190
ag180
aa(lp918
g199
ag199
ag4
aS'C'
ag200
ag332
ag8
aS'C'
aS'F'
aS'C'
aS'C'
aS'E7/B'
p919
ag5
ag656
aS'G'
aS'C'
aS'C'
ag5
ag16
ag10
aS'C'
ag5
ag656
aS'G'
ag198
aS'G'
ag199
ag205
ag332
ag8
ag198
aS'G'
ag408
ag199
aS'FmM7'
p920
aS'Gm7'
p921
aS'A'
ag334
aS'G'
aS'C'
aa(lp922
g210
ag210
ag19
aS'B'
ag211
ag339
ag24
aS'B'
aS'E'
aS'B'
aS'B'
aS'D#7/A#'
p923
ag21
ag665
ag20
aS'B'
aS'B'
ag21
ag32
ag26
aS'B'
ag21
ag665
ag20
ag209
ag20
ag210
ag216
ag339
ag24
ag209
ag20
ag411
ag210
aS'EmM7'
p924
aS'F#m7'
p925
ag336
ag341
ag20
aS'B'
aa(lp926
g221
ag221
ag36
ag34
ag222
ag345
ag41
ag34
ag38
ag34
ag34
aS'D7/A'
p927
ag37
ag674
aS'F'
ag34
ag34
ag37
ag49
ag43
ag34
ag37
ag674
aS'F'
ag220
aS'F'
ag221
ag227
ag345
ag41
ag220
aS'F'
ag414
ag221
aS'EbmM7'
p928
aS'Fm7'
p929
aS'G'
ag347
aS'F'
ag34
aa(lp930
g232
ag232
ag52
aS'A'
ag233
ag352
ag56
aS'A'
aS'D'
aS'A'
aS'A'
aS'C#7/G#'
p931
ag53
ag683
aS'E'
aS'A'
aS'A'
ag53
ag64
ag58
aS'A'
ag53
ag683
aS'E'
ag231
aS'E'
ag232
ag238
ag352
ag56
ag231
aS'E'
ag417
ag232
aS'DmM7'
p932
aS'Em7'
p933
ag349
ag354
aS'E'
aS'A'
aa(lp934
g243
ag243
ag68
ag66
ag244
ag358
ag74
ag66
ag71
ag66
ag66
aS'C7/G'
p935
ag70
ag692
ag69
ag66
ag66
ag70
ag82
ag76
ag66
ag70
ag692
ag69
ag242
ag69
ag243
ag249
ag358
ag74
ag242
ag69
ag420
ag243
aS'DbmM7'
p936
aS'Ebm7'
p937
aS'F'
ag360
ag69
ag66
aa(lp938
g254
ag254
ag85
aS'G'
ag255
ag364
ag89
aS'G'
aS'C'
aS'G'
aS'G'
aS'B7/F#'
p939
ag86
ag701
aS'D'
aS'G'
aS'G'
ag86
ag97
ag91
aS'G'
ag86
ag701
aS'D'
ag253
aS'D'
ag254
ag260
ag364
ag89
ag253
aS'D'
ag423
ag254
aS'CmM7'
p940
aS'Dm7'
p941
aS'E'
ag366
aS'D'
aS'G'
aa(lp942
g265
ag265
ag101
ag99
ag266
ag371
ag106
ag99
aS'B'
ag99
ag99
aS'A#7/F'
p943
ag103
ag710
ag102
ag99
ag99
ag103
ag114
ag108
ag99
ag103
ag710
ag102
ag264
ag102
ag265
ag271
ag371
ag106
ag264
ag102
ag426
ag265
aS'BmM7'
p944
aS'C#m7'
p945
ag368
ag373
ag102
ag99
aa(lp946
g276
ag276
ag117
aS'F'
ag277
ag377
ag122
aS'F'
ag119
aS'F'
aS'F'
aS'A7/E'
p947
ag118
ag719
aS'C'
aS'F'
aS'F'
ag118
ag130
ag124
aS'F'
ag118
ag719
aS'C'
ag275
aS'C'
ag276
ag282
ag377
ag122
ag275
aS'C'
ag429
ag276
aS'BbmM7'
p948
aS'Cm7'
p949
aS'D'
ag379
aS'C'
aS'F'
aa(lp950
g287
ag287
ag133
aS'E'
ag288
ag384
ag137
aS'E'
aS'A'
aS'E'
aS'E'
aS'G#7/D#'
p951
ag134
ag728
aS'B'
aS'E'
aS'E'
ag134
ag145
ag139
aS'E'
ag134
ag728
aS'B'
ag286
aS'B'
ag287
ag293
ag384
ag137
ag286
aS'B'
ag432
ag287
aS'AmM7'
p952
aS'Bm7'
p953
ag381
ag386
aS'B'
aS'E'
aa(lp954
g298
ag298
ag149
ag147
ag299
ag390
ag155
ag147
ag152
ag147
ag147
aS'G7/D'
p955
ag151
ag737
ag150
ag147
ag147
ag151
ag163
ag157
ag147
ag151
ag737
ag150
ag297
ag150
ag298
ag304
ag390
ag155
ag297
ag150
ag435
ag298
aS'AbmM7'
p956
aS'Bbm7'
p957
aS'C'
ag392
ag150
ag147
aa(lp958
g309
ag309
ag166
aS'D'
ag310
ag396
ag170
aS'D'
aS'G'
aS'D'
aS'D'
aS'F#7/C#'
p959
ag167
ag746
aS'A'
aS'D'
aS'D'
ag167
ag178
ag172
aS'D'
ag167
ag746
aS'A'
ag308
aS'A'
ag309
ag315
ag396
ag170
ag308
aS'A'
ag438
ag309
aS'GmM7'
p960
aS'Am7'
p961
aS'B'
ag398
aS'A'
aS'D'
aa(lp962
g320
ag320
ag182
ag180
ag321
ag403
ag188
ag180
ag185
ag180
ag180
aS'F7/C'
p963
ag184
ag755
ag183
ag180
ag180
ag184
ag196
ag190
ag180
ag184
ag755
ag183
ag319
ag183
ag320
ag326
ag403
ag188
ag319
ag183
ag441
ag320
aS'GbmM7'
p964
aS'Abm7'
p965
ag400
ag405
ag183
ag180
aa(lp966
g199
ag8
aS'F'
ag8
aS'C'
aS'G'
aS'Am7'
p967
aS'D7/A'
p968
aS'Em/G'
p969
aS'G'
aS'C'
aS'C'
aS'G'
ag10
ag5
ag589
aS'Gm7/F'
p970
ag204
ag6
ag199
ag408
ag199
ag920
aS'G'
ag10
ag199
ag199
ag920
ag205
aS'G'
ag10
ag199
ag205
ag654
ag655
ag4
aS'A/C#'
p971
aS'B/D#'
p972
aS'E'
aS'E/G#'
p973
ag659
ag4
ag199
ag3
aS'C'
ag3
ag199
aS'G'
ag199
aS'G'
aS'F'
ag332
ag8
aS'G'
aS'C'
aS'Fmaj7/E'
p974
ag6
ag199
ag205
ag331
ag505
aS'G'
ag10
aS'C'
aa(lp975
g210
ag24
aS'E'
ag24
aS'B'
ag20
aS'G#m7'
p976
aS'C#7/G#'
p977
aS'D#m/F#'
p978
ag20
aS'B'
aS'B'
ag20
ag26
ag21
ag594
aS'F#m7/E'
p979
ag215
ag22
ag210
ag411
ag210
ag924
ag20
ag26
ag210
ag210
ag924
ag216
ag20
ag26
ag210
ag216
ag663
ag664
ag19
aS'Ab/C'
p980
aS'Bb/D'
p981
ag765
aS'Eb/G'
p982
ag668
ag19
ag210
ag18
aS'B'
ag18
ag210
ag20
ag210
ag20
aS'E'
ag339
ag24
ag20
aS'B'
aS'Emaj7/D#'
p983
ag22
ag210
ag216
ag338
ag512
ag20
ag26
aS'B'
aa(lp984
g221
ag41
ag38
ag41
ag34
aS'F'
aS'Gm7'
p985
aS'C7/G'
p986
aS'Dm/F'
p987
aS'F'
ag34
ag34
aS'F'
ag43
ag37
ag600
aS'Fm7/Eb'
p988
ag226
ag39
ag221
ag414
ag221
ag928
aS'F'
ag43
ag221
ag221
ag928
ag227
aS'F'
ag43
ag221
ag227
ag672
ag673
ag36
aS'G/B'
p989
aS'A/C#'
p990
aS'D'
aS'D/F#'
p991
ag677
ag36
ag221
ag35
ag34
ag35
ag221
aS'F'
ag221
aS'F'
ag38
ag345
ag41
aS'F'
ag34
aS'Ebmaj7/D'
p992
ag39
ag221
ag227
ag344
ag519
aS'F'
ag43
ag34
aa(lp993
g232
ag56
aS'D'
ag56
aS'A'
aS'E'
aS'F#m7'
p994
aS'B7/F#'
p995
aS'C#m/E'
p996
aS'E'
aS'A'
aS'A'
aS'E'
ag58
ag53
ag605
aS'Em7/D'
p997
ag237
ag54
ag232
ag417
ag232
ag932
aS'E'
ag58
ag232
ag232
ag932
ag238
aS'E'
ag58
ag232
ag238
ag681
ag682
ag52
aS'F#/A#'
p998
aS'Ab/C'
p999
ag776
aS'C#/F'
p1000
ag686
ag52
ag232
ag51
aS'A'
ag51
ag232
aS'E'
ag232
aS'E'
aS'D'
ag352
ag56
aS'E'
aS'A'
aS'Dmaj7/C#'
p1001
ag54
ag232
ag238
ag351
ag526
aS'E'
ag58
aS'A'
aa(lp1002
g243
ag74
ag71
ag74
ag66
ag69
aS'Fm7'
p1003
aS'Bb7/F'
p1004
aS'Cm/Eb'
p1005
ag69
ag66
ag66
ag69
ag76
ag70
ag611
aS'Ebm7/Db'
p1006
ag248
ag72
ag243
ag420
ag243
ag936
ag69
ag76
ag243
ag243
ag936
ag249
ag69
ag76
ag243
ag249
ag690
ag691
ag68
aS'F/A'
p1007
aS'G/B'
p1008
aS'C'
aS'C/E'
p1009
ag695
ag68
ag243
ag67
ag66
ag67
ag243
ag69
ag243
ag69
ag71
ag358
ag74
ag69
ag66
aS'Dbmaj7/C'
p1010
ag72
ag243
ag249
ag357
ag533
ag69
ag76
ag66
aa(lp1011
g254
ag89
aS'C'
ag89
aS'G'
aS'D'
aS'Em7'
p1012
aS'A7/E'
p1013
aS'Bm/D'
p1014
aS'D'
aS'G'
aS'G'
aS'D'
ag91
ag86
ag616
aS'Dm7/C'
p1015
ag259
ag87
ag254
ag423
ag254
ag940
aS'D'
ag91
ag254
ag254
ag940
ag260
aS'D'
ag91
ag254
ag260
ag699
ag700
ag85
aS'E/G#'
p1016
aS'F#/A#'
p1017
aS'B'
aS'B/D#'
p1018
ag704
ag85
ag254
ag84
aS'G'
ag84
ag254
aS'D'
ag254
aS'D'
aS'C'
ag364
ag89
aS'D'
aS'G'
aS'Cmaj7/B'
p1019
ag87
ag254
ag260
ag363
ag540
aS'D'
ag91
aS'G'
aa(lp1020
g265
ag106
aS'B'
ag106
ag99
ag102
aS'D#m7'
p1021
aS'G#7/D#'
p1022
aS'A#m/C#'
p1023
ag102
ag99
ag99
ag102
ag108
ag103
ag621
aS'C#m7/B'
p1024
ag270
ag104
ag265
ag426
ag265
ag944
ag102
ag108
ag265
ag265
ag944
ag271
ag102
ag108
ag265
ag271
ag708
ag709
ag101
aS'Eb/G'
p1025
aS'F/A'
p1026
ag792
aS'Bb/D'
p1027
ag713
ag101
ag265
ag100
ag99
ag100
ag265
ag102
ag265
ag102
aS'B'
ag371
ag106
ag102
ag99
aS'Bmaj7/A#'
p1028
ag104
ag265
ag271
ag370
ag547
ag102
ag108
ag99
aa(lp1029
g276
ag122
ag119
ag122
aS'F'
aS'C'
aS'Dm7'
p1030
aS'G7/D'
p1031
aS'Am/C'
p1032
aS'C'
aS'F'
aS'F'
aS'C'
ag124
ag118
ag627
aS'Cm7/Bb'
p1033
ag281
ag120
ag276
ag429
ag276
ag948
aS'C'
ag124
ag276
ag276
ag948
ag282
aS'C'
ag124
ag276
ag282
ag717
ag718
ag117
aS'D/F#'
p1034
aS'E/G#'
p1035
aS'A'
aS'A/C#'
p1036
ag722
ag117
ag276
ag116
aS'F'
ag116
ag276
aS'C'
ag276
aS'C'
ag119
ag377
ag122
aS'C'
aS'F'
aS'Bbmaj7/A'
p1037
ag120
ag276
ag282
ag376
ag554
aS'C'
ag124
aS'F'
aa(lp1038
g287
ag137
aS'A'
ag137
aS'E'
aS'B'
aS'C#m7'
p1039
aS'F#7/C#'
p1040
aS'G#m/B'
p1041
aS'B'
aS'E'
aS'E'
aS'B'
ag139
ag134
ag632
aS'Bm7/A'
p1042
ag292
ag135
ag287
ag432
ag287
ag952
aS'B'
ag139
ag287
ag287
ag952
ag293
aS'B'
ag139
ag287
ag293
ag726
ag727
ag133
aS'C#/F'
p1043
aS'Eb/G'
p1044
ag802
aS'Ab/C'
p1045
ag731
ag133
ag287
ag132
aS'E'
ag132
ag287
aS'B'
ag287
aS'B'
aS'A'
ag384
ag137
aS'B'
aS'E'
aS'Amaj7/G#'
p1046
ag135
ag287
ag293
ag383
ag561
aS'B'
ag139
aS'E'
aa(lp1047
g298
ag155
ag152
ag155
ag147
ag150
aS'Cm7'
p1048
aS'F7/C'
p1049
aS'Gm/Bb'
p1050
ag150
ag147
ag147
ag150
ag157
ag151
ag638
aS'Bbm7/Ab'
p1051
ag303
ag153
ag298
ag435
ag298
ag956
ag150
ag157
ag298
ag298
ag956
ag304
ag150
ag157
ag298
ag304
ag735
ag736
ag149
aS'C/E'
p1052
aS'D/F#'
p1053
aS'G'
aS'G/B'
p1054
ag740
ag149
ag298
ag148
ag147
ag148
ag298
ag150
ag298
ag150
ag152
ag390
ag155
ag150
ag147
aS'Abmaj7/G'
p1055
ag153
ag298
ag304
ag389
ag568
ag150
ag157
ag147
aa(lp1056
g309
ag170
aS'G'
ag170
aS'D'
aS'A'
aS'Bm7'
p1057
aS'E7/B'
p1058
aS'F#m/A'
p1059
aS'A'
aS'D'
aS'D'
aS'A'
ag172
ag167
ag643
aS'Am7/G'
p1060
ag314
ag168
ag309
ag438
ag309
ag960
aS'A'
ag172
ag309
ag309
ag960
ag315
aS'A'
ag172
ag309
ag315
ag744
ag745
ag166
aS'B/D#'
p1061
aS'C#/F'
p1062
ag813
aS'F#/A#'
p1063
ag749
ag166
ag309
ag165
aS'D'
ag165
ag309
aS'A'
ag309
aS'A'
aS'G'
ag396
ag170
aS'A'
aS'D'
aS'Gmaj7/F#'
p1064
ag168
ag309
ag315
ag395
ag575
aS'A'
ag172
aS'D'
aa(lp1065
g320
ag188
ag185
ag188
ag180
ag183
aS'Bbm7'
p1066
aS'Eb7/Bb'
p1067
aS'Fm/Ab'
p1068
ag183
ag180
ag180
ag183
ag190
ag184
ag648
aS'Abm7/Gb'
p1069
ag325
ag186
ag320
ag441
ag320
ag964
ag183
ag190
ag320
ag320
ag964
ag326
ag183
ag190
ag320
ag326
ag753
ag754
ag182
aS'Bb/D'
p1070
aS'C/E'
p1071
aS'F'
aS'F/A'
p1072
ag758
ag182
ag320
ag181
ag180
ag181
ag320
ag183
ag320
ag183
ag185
ag403
ag188
ag183
ag180
aS'Gbmaj7/F'
p1073
ag186
ag320
ag326
ag402
ag582
ag183
ag190
ag180
aa(lp1074
S'C'
ag5
ag201
aS'F'
ag10
ag5
aS'G'
aS'C'
aS'G'
ag201
ag3
ag407
aS'C'
ag4
ag3
ag207
aS'G'
ag10
aS'C'
aS'C'
aS'G'
aS'C'
aS'F'
ag8
ag3
ag659
ag4
ag199
ag199
ag4
aS'G'
ag10
aS'C'
ag3
ag9
aS'G'
ag10
aS'C'
ag5
ag5
ag6
ag8
ag11
ag332
ag8
aS'G'
aS'C'
aS'G'
ag332
ag201
ag5
ag657
aS'C'
ag4
ag3
ag207
aS'G'
ag10
aS'C'
aa(lp1075
S'B'
ag21
ag212
aS'E'
ag26
ag21
ag20
aS'B'
ag20
ag212
ag18
ag410
aS'B'
ag19
ag18
ag218
ag20
ag26
aS'B'
aS'B'
ag20
aS'B'
aS'E'
ag24
ag18
ag668
ag19
ag210
ag210
ag19
ag20
ag26
aS'B'
ag18
ag25
ag20
ag26
aS'B'
ag21
ag21
ag22
ag24
ag27
ag339
ag24
ag20
aS'B'
ag20
ag339
ag212
ag21
ag666
aS'B'
ag19
ag18
ag218
ag20
ag26
aS'B'
aa(lp1076
g34
ag37
ag223
ag38
ag43
ag37
aS'F'
ag34
aS'F'
ag223
ag35
ag413
ag34
ag36
ag35
ag229
aS'F'
ag43
ag34
ag34
aS'F'
ag34
ag38
ag41
ag35
ag677
ag36
ag221
ag221
ag36
aS'F'
ag43
ag34
ag35
ag42
aS'F'
ag43
ag34
ag37
ag37
ag39
ag41
ag44
ag345
ag41
aS'F'
ag34
aS'F'
ag345
ag223
ag37
ag675
ag34
ag36
ag35
ag229
aS'F'
ag43
ag34
aa(lp1077
S'A'
ag53
ag234
aS'D'
ag58
ag53
aS'E'
aS'A'
aS'E'
ag234
ag51
ag416
aS'A'
ag52
ag51
ag240
aS'E'
ag58
aS'A'
aS'A'
aS'E'
aS'A'
aS'D'
ag56
ag51
ag686
ag52
ag232
ag232
ag52
aS'E'
ag58
aS'A'
ag51
ag57
aS'E'
ag58
aS'A'
ag53
ag53
ag54
ag56
ag59
ag352
ag56
aS'E'
aS'A'
aS'E'
ag352
ag234
ag53
ag684
aS'A'
ag52
ag51
ag240
aS'E'
ag58
aS'A'
aa(lp1078
g66
ag70
ag245
ag71
ag76
ag70
ag69
ag66
ag69
ag245
ag67
ag419
ag66
ag68
ag67
ag251
ag69
ag76
ag66
ag66
ag69
ag66
ag71
ag74
ag67
ag695
ag68
ag243
ag243
ag68
ag69
ag76
ag66
ag67
ag75
ag69
ag76
ag66
ag70
ag70
ag72
ag74
ag77
ag358
ag74
ag69
ag66
ag69
ag358
ag245
ag70
ag693
ag66
ag68
ag67
ag251
ag69
ag76
ag66
aa(lp1079
S'G'
ag86
ag256
aS'C'
ag91
ag86
aS'D'
aS'G'
aS'D'
ag256
ag84
ag422
aS'G'
ag85
ag84
ag262
aS'D'
ag91
aS'G'
aS'G'
aS'D'
aS'G'
aS'C'
ag89
ag84
ag704
ag85
ag254
ag254
ag85
aS'D'
ag91
aS'G'
ag84
ag90
aS'D'
ag91
aS'G'
ag86
ag86
ag87
ag89
ag92
ag364
ag89
aS'D'
aS'G'
aS'D'
ag364
ag256
ag86
ag702
aS'G'
ag85
ag84
ag262
aS'D'
ag91
aS'G'
aa(lp1080
g99
ag103
ag267
aS'B'
ag108
ag103
ag102
ag99
ag102
ag267
ag100
ag425
ag99
ag101
ag100
ag273
ag102
ag108
ag99
ag99
ag102
ag99
aS'B'
ag106
ag100
ag713
ag101
ag265
ag265
ag101
ag102
ag108
ag99
ag100
ag107
ag102
ag108
ag99
ag103
ag103
ag104
ag106
ag109
ag371
ag106
ag102
ag99
ag102
ag371
ag267
ag103
ag711
ag99
ag101
ag100
ag273
ag102
ag108
ag99
aa(lp1081
S'F'
ag118
ag278
ag119
ag124
ag118
aS'C'
aS'F'
aS'C'
ag278
ag116
ag428
aS'F'
ag117
ag116
ag284
aS'C'
ag124
aS'F'
aS'F'
aS'C'
aS'F'
ag119
ag122
ag116
ag722
ag117
ag276
ag276
ag117
aS'C'
ag124
aS'F'
ag116
ag123
aS'C'
ag124
aS'F'
ag118
ag118
ag120
ag122
ag125
ag377
ag122
aS'C'
aS'F'
aS'C'
ag377
ag278
ag118
ag720
aS'F'
ag117
ag116
ag284
aS'C'
ag124
aS'F'
aa(lp1082
S'E'
ag134
ag289
aS'A'
ag139
ag134
aS'B'
aS'E'
aS'B'
ag289
ag132
ag431
aS'E'
ag133
ag132
ag295
aS'B'
ag139
aS'E'
aS'E'
aS'B'
aS'E'
aS'A'
ag137
ag132
ag731
ag133
ag287
ag287
ag133
aS'B'
ag139
aS'E'
ag132
ag138
aS'B'
ag139
aS'E'
ag134
ag134
ag135
ag137
ag140
ag384
ag137
aS'B'
aS'E'
aS'B'
ag384
ag289
ag134
ag729
aS'E'
ag133
ag132
ag295
aS'B'
ag139
aS'E'
aa(lp1083
g147
ag151
ag300
ag152
ag157
ag151
ag150
ag147
ag150
ag300
ag148
ag434
ag147
ag149
ag148
ag306
ag150
ag157
ag147
ag147
ag150
ag147
ag152
ag155
ag148
ag740
ag149
ag298
ag298
ag149
ag150
ag157
ag147
ag148
ag156
ag150
ag157
ag147
ag151
ag151
ag153
ag155
ag158
ag390
ag155
ag150
ag147
ag150
ag390
ag300
ag151
ag738
ag147
ag149
ag148
ag306
ag150
ag157
ag147
aa(lp1084
S'D'
ag167
ag311
aS'G'
ag172
ag167
aS'A'
aS'D'
aS'A'
ag311
ag165
ag437
aS'D'
ag166
ag165
ag317
aS'A'
ag172
aS'D'
aS'D'
aS'A'
aS'D'
aS'G'
ag170
ag165
ag749
ag166
ag309
ag309
ag166
aS'A'
ag172
aS'D'
ag165
ag171
aS'A'
ag172
aS'D'
ag167
ag167
ag168
ag170
ag173
ag396
ag170
aS'A'
aS'D'
aS'A'
ag396
ag311
ag167
ag747
aS'D'
ag166
ag165
ag317
aS'A'
ag172
aS'D'
aa(lp1085
g180
ag184
ag322
ag185
ag190
ag184
ag183
ag180
ag183
ag322
ag181
ag440
ag180
ag182
ag181
ag328
ag183
ag190
ag180
ag180
ag183
ag180
ag185
ag188
ag181
ag758
ag182
ag320
ag320
ag182
ag183
ag190
ag180
ag181
ag189
ag183
ag190
ag180
ag184
ag184
ag186
ag188
ag191
ag403
ag188
ag183
ag180
ag183
ag403
ag322
ag184
ag756
ag180
ag182
ag181
ag328
ag183
ag190
ag180
aa(lp1086
g199
ag332
ag204
ag6
ag199
ag444
ag16
ag199
aS'A'
ag505
aS'G'
ag10
aS'C'
ag4
ag199
ag204
ag203
ag4
aS'G'
ag199
aS'G'
ag204
ag10
ag199
ag199
ag205
ag655
ag199
ag9
aS'G'
aS'C'
ag5
ag971
ag12
ag8
ag4
ag16
ag199
aS'A'
ag505
aS'G'
ag199
ag330
aS'C'
aS'F'
aS'G'
ag825
aS'E7+/G#'
p1087
ag204
ag505
aS'G'
ag10
aS'A'
ag829
ag654
ag655
ag330
ag331
ag10
aS'C'
aa(lp1088
g210
ag339
ag215
ag22
ag210
ag447
ag32
ag210
ag336
ag512
ag20
ag26
aS'B'
ag19
ag210
ag215
ag214
ag19
ag20
ag210
ag20
ag215
ag26
ag210
ag210
ag216
ag664
ag210
ag25
ag20
aS'B'
ag21
ag980
ag28
ag24
ag19
ag32
ag210
ag336
ag512
ag20
ag210
ag337
aS'B'
aS'E'
ag20
ag833
aS'Eb7+/G'
p1089
ag215
ag512
ag20
ag26
ag336
ag837
ag663
ag664
ag337
ag338
ag26
aS'B'
aa(lp1090
g221
ag345
ag226
ag39
ag221
ag450
ag49
ag221
aS'G'
ag519
aS'F'
ag43
ag34
ag36
ag221
ag226
ag225
ag36
aS'F'
ag221
aS'F'
ag226
ag43
ag221
ag221
ag227
ag673
ag221
ag42
aS'F'
ag34
ag37
ag989
ag45
ag41
ag36
ag49
ag221
aS'G'
ag519
aS'F'
ag221
ag343
ag34
ag38
aS'F'
ag841
aS'D7+/F#'
p1091
ag226
ag519
aS'F'
ag43
aS'G'
ag845
ag672
ag673
ag343
ag344
ag43
ag34
aa(lp1092
g232
ag352
ag237
ag54
ag232
ag453
ag64
ag232
ag349
ag526
aS'E'
ag58
aS'A'
ag52
ag232
ag237
ag236
ag52
aS'E'
ag232
aS'E'
ag237
ag58
ag232
ag232
ag238
ag682
ag232
ag57
aS'E'
aS'A'
ag53
ag998
ag60
ag56
ag52
ag64
ag232
ag349
ag526
aS'E'
ag232
ag350
aS'A'
aS'D'
aS'E'
ag849
aS'C#7+/F'
p1093
ag237
ag526
aS'E'
ag58
ag349
ag853
ag681
ag682
ag350
ag351
ag58
aS'A'
aa(lp1094
g243
ag358
ag248
ag72
ag243
ag456
ag82
ag243
aS'F'
ag533
ag69
ag76
ag66
ag68
ag243
ag248
ag247
ag68
ag69
ag243
ag69
ag248
ag76
ag243
ag243
ag249
ag691
ag243
ag75
ag69
ag66
ag70
ag1007
ag78
ag74
ag68
ag82
ag243
aS'F'
ag533
ag69
ag243
ag356
ag66
ag71
ag69
ag857
aS'C7+/E'
p1095
ag248
ag533
ag69
ag76
aS'F'
ag861
ag690
ag691
ag356
ag357
ag76
ag66
aa(lp1096
g254
ag364
ag259
ag87
ag254
ag459
ag97
ag254
aS'E'
ag540
aS'D'
ag91
aS'G'
ag85
ag254
ag259
ag258
ag85
aS'D'
ag254
aS'D'
ag259
ag91
ag254
ag254
ag260
ag700
ag254
ag90
aS'D'
aS'G'
ag86
ag1016
ag93
ag89
ag85
ag97
ag254
aS'E'
ag540
aS'D'
ag254
ag362
aS'G'
aS'C'
aS'D'
ag865
aS'B7+/D#'
p1097
ag259
ag540
aS'D'
ag91
aS'E'
ag869
ag699
ag700
ag362
ag363
ag91
aS'G'
aa(lp1098
g265
ag371
ag270
ag104
ag265
ag462
ag114
ag265
ag368
ag547
ag102
ag108
ag99
ag101
ag265
ag270
ag269
ag101
ag102
ag265
ag102
ag270
ag108
ag265
ag265
ag271
ag709
ag265
ag107
ag102
ag99
ag103
ag1025
ag110
ag106
ag101
ag114
ag265
ag368
ag547
ag102
ag265
ag369
ag99
aS'B'
ag102
ag873
aS'Bb7+/D'
p1099
ag270
ag547
ag102
ag108
ag368
ag877
ag708
ag709
ag369
ag370
ag108
ag99
aa(lp1100
g276
ag377
ag281
ag120
ag276
ag465
ag130
ag276
aS'D'
ag554
aS'C'
ag124
aS'F'
ag117
ag276
ag281
ag280
ag117
aS'C'
ag276
aS'C'
ag281
ag124
ag276
ag276
ag282
ag718
ag276
ag123
aS'C'
aS'F'
ag118
ag1034
ag126
ag122
ag117
ag130
ag276
aS'D'
ag554
aS'C'
ag276
ag375
aS'F'
ag119
aS'C'
ag881
aS'A7+/C#'
p1101
ag281
ag554
aS'C'
ag124
aS'D'
ag885
ag717
ag718
ag375
ag376
ag124
aS'F'
aa(lp1102
g287
ag384
ag292
ag135
ag287
ag468
ag145
ag287
ag381
ag561
aS'B'
ag139
aS'E'
ag133
ag287
ag292
ag291
ag133
aS'B'
ag287
aS'B'
ag292
ag139
ag287
ag287
ag293
ag727
ag287
ag138
aS'B'
aS'E'
ag134
ag1043
ag141
ag137
ag133
ag145
ag287
ag381
ag561
aS'B'
ag287
ag382
aS'E'
aS'A'
aS'B'
ag889
aS'Ab7+/C'
p1103
ag292
ag561
aS'B'
ag139
ag381
ag893
ag726
ag727
ag382
ag383
ag139
aS'E'
aa(lp1104
g298
ag390
ag303
ag153
ag298
ag471
ag163
ag298
aS'C'
ag568
ag150
ag157
ag147
ag149
ag298
ag303
ag302
ag149
ag150
ag298
ag150
ag303
ag157
ag298
ag298
ag304
ag736
ag298
ag156
ag150
ag147
ag151
ag1052
ag159
ag155
ag149
ag163
ag298
aS'C'
ag568
ag150
ag298
ag388
ag147
ag152
ag150
ag897
aS'G7+/B'
p1105
ag303
ag568
ag150
ag157
aS'C'
ag901
ag735
ag736
ag388
ag389
ag157
ag147
aa(lp1106
g309
ag396
ag314
ag168
ag309
ag474
ag178
ag309
aS'B'
ag575
aS'A'
ag172
aS'D'
ag166
ag309
ag314
ag313
ag166
aS'A'
ag309
aS'A'
ag314
ag172
ag309
ag309
ag315
ag745
ag309
ag171
aS'A'
aS'D'
ag167
ag1061
ag174
ag170
ag166
ag178
ag309
aS'B'
ag575
aS'A'
ag309
ag394
aS'D'
aS'G'
aS'A'
ag905
aS'F#7+/A#'
p1107
ag314
ag575
aS'A'
ag172
aS'B'
ag909
ag744
ag745
ag394
ag395
ag172
aS'D'
aa(lp1108
g320
ag403
ag325
ag186
ag320
ag477
ag196
ag320
ag400
ag582
ag183
ag190
ag180
ag182
ag320
ag325
ag324
ag182
ag183
ag320
ag183
ag325
ag190
ag320
ag320
ag326
ag754
ag320
ag189
ag183
ag180
ag184
ag1070
ag192
ag188
ag182
ag196
ag320
ag400
ag582
ag183
ag320
ag401
ag180
ag185
ag183
ag913
aS'F7+/A'
p1109
ag325
ag582
ag183
ag190
ag400
ag917
ag753
ag754
ag401
ag402
ag190
ag180
aa(lp1110
S'G'
ag199
ag507
ag205
ag589
ag655
aS'D#dim/F#'
p1111
aS'E'
ag6
ag199
aS'G'
ag16
ag199
ag330
ag8
aS'F'
ag4
aS'C'
aS'Eo7'
p1112
ag655
aS'G'
ag589
ag971
aS'C'
aS'G'
ag10
ag4
ag199
ag205
aS'G'
aS'G'
ag199
ag6
ag204
ag6
ag199
ag16
ag199
aS'G'
ag654
aS'F'
ag10
ag5
ag4
aS'G'
ag332
ag8
ag10
aS'C'
aS'C'
ag5
aS'F#dim/A'
p1113
aS'G'
ag332
ag6
ag199
ag16
ag199
ag6
ag8
aS'G'
ag3
ag407
aS'C'
ag3
aS'C'
ag205
ag331
ag656
ag199
aS'G'
aa(lp1114
g20
ag210
ag514
ag216
ag594
ag664
aS'Ddim/F'
p1115
ag765
ag22
ag210
ag20
ag32
ag210
ag337
ag24
aS'E'
ag19
aS'B'
aS'D#o7'
p1116
ag664
ag20
ag594
ag980
aS'B'
ag20
ag26
ag19
ag210
ag216
ag20
ag20
ag210
ag22
ag215
ag22
ag210
ag32
ag210
ag20
ag663
aS'E'
ag26
ag21
ag19
ag20
ag339
ag24
ag26
aS'B'
aS'B'
ag21
aS'Fdim/Ab'
p1117
ag20
ag339
ag22
ag210
ag32
ag210
ag22
ag24
ag20
ag18
ag410
aS'B'
ag18
aS'B'
ag216
ag338
ag665
ag210
ag20
aa(lp1118
S'F'
ag221
ag521
ag227
ag600
ag673
aS'C#dim/E'
p1119
aS'D'
ag39
ag221
aS'F'
ag49
ag221
ag343
ag41
ag38
ag36
ag34
aS'Do7'
p1120
ag673
aS'F'
ag600
ag989
ag34
aS'F'
ag43
ag36
ag221
ag227
aS'F'
aS'F'
ag221
ag39
ag226
ag39
ag221
ag49
ag221
aS'F'
ag672
ag38
ag43
ag37
ag36
aS'F'
ag345
ag41
ag43
ag34
ag34
ag37
aS'Edim/G'
p1121
aS'F'
ag345
ag39
ag221
ag49
ag221
ag39
ag41
aS'F'
ag35
ag413
ag34
ag35
ag34
ag227
ag344
ag674
ag221
aS'F'
aa(lp1122
S'E'
ag232
ag528
ag238
ag605
ag682
aS'Cdim/D#'
p1123
ag776
ag54
ag232
aS'E'
ag64
ag232
ag350
ag56
aS'D'
ag52
aS'A'
aS'C#o7'
p1124
ag682
aS'E'
ag605
ag998
aS'A'
aS'E'
ag58
ag52
ag232
ag238
aS'E'
aS'E'
ag232
ag54
ag237
ag54
ag232
ag64
ag232
aS'E'
ag681
aS'D'
ag58
ag53
ag52
aS'E'
ag352
ag56
ag58
aS'A'
aS'A'
ag53
aS'D#dim/F#'
p1125
aS'E'
ag352
ag54
ag232
ag64
ag232
ag54
ag56
aS'E'
ag51
ag416
aS'A'
ag51
aS'A'
ag238
ag351
ag683
ag232
aS'E'
aa(lp1126
g69
ag243
ag535
ag249
ag611
ag691
aS'Bdim/D'
p1127
aS'C'
ag72
ag243
ag69
ag82
ag243
ag356
ag74
ag71
ag68
ag66
aS'Co7'
p1128
ag691
ag69
ag611
ag1007
ag66
ag69
ag76
ag68
ag243
ag249
ag69
ag69
ag243
ag72
ag248
ag72
ag243
ag82
ag243
ag69
ag690
ag71
ag76
ag70
ag68
ag69
ag358
ag74
ag76
ag66
ag66
ag70
aS'Ddim/F'
p1129
ag69
ag358
ag72
ag243
ag82
ag243
ag72
ag74
ag69
ag67
ag419
ag66
ag67
ag66
ag249
ag357
ag692
ag243
ag69
aa(lp1130
S'D'
ag254
ag542
ag260
ag616
ag700
aS'A#dim/C#'
p1131
aS'B'
ag87
ag254
aS'D'
ag97
ag254
ag362
ag89
aS'C'
ag85
aS'G'
aS'Bo7'
p1132
ag700
aS'D'
ag616
ag1016
aS'G'
aS'D'
ag91
ag85
ag254
ag260
aS'D'
aS'D'
ag254
ag87
ag259
ag87
ag254
ag97
ag254
aS'D'
ag699
aS'C'
ag91
ag86
ag85
aS'D'
ag364
ag89
ag91
aS'G'
aS'G'
ag86
aS'C#dim/E'
p1133
aS'D'
ag364
ag87
ag254
ag97
ag254
ag87
ag89
aS'D'
ag84
ag422
aS'G'
ag84
aS'G'
ag260
ag363
ag701
ag254
aS'D'
aa(lp1134
g102
ag265
ag549
ag271
ag621
ag709
aS'Adim/C'
p1135
ag792
ag104
ag265
ag102
ag114
ag265
ag369
ag106
aS'B'
ag101
ag99
aS'A#o7'
p1136
ag709
ag102
ag621
ag1025
ag99
ag102
ag108
ag101
ag265
ag271
ag102
ag102
ag265
ag104
ag270
ag104
ag265
ag114
ag265
ag102
ag708
aS'B'
ag108
ag103
ag101
ag102
ag371
ag106
ag108
ag99
ag99
ag103
aS'Cdim/D#'
p1137
ag102
ag371
ag104
ag265
ag114
ag265
ag104
ag106
ag102
ag100
ag425
ag99
ag100
ag99
ag271
ag370
ag710
ag265
ag102
aa(lp1138
S'C'
ag276
ag556
ag282
ag627
ag718
aS'G#dim/B'
p1139
aS'A'
ag120
ag276
aS'C'
ag130
ag276
ag375
ag122
ag119
ag117
aS'F'
aS'Ao7'
p1140
ag718
aS'C'
ag627
ag1034
aS'F'
aS'C'
ag124
ag117
ag276
ag282
aS'C'
aS'C'
ag276
ag120
ag281
ag120
ag276
ag130
ag276
aS'C'
ag717
ag119
ag124
ag118
ag117
aS'C'
ag377
ag122
ag124
aS'F'
aS'F'
ag118
aS'Bdim/D'
p1141
aS'C'
ag377
ag120
ag276
ag130
ag276
ag120
ag122
aS'C'
ag116
ag428
aS'F'
ag116
aS'F'
ag282
ag376
ag719
ag276
aS'C'
aa(lp1142
S'B'
ag287
ag563
ag293
ag632
ag727
aS'Gdim/Bb'
p1143
ag802
ag135
ag287
aS'B'
ag145
ag287
ag382
ag137
aS'A'
ag133
aS'E'
aS'G#o7'
p1144
ag727
aS'B'
ag632
ag1043
aS'E'
aS'B'
ag139
ag133
ag287
ag293
aS'B'
aS'B'
ag287
ag135
ag292
ag135
ag287
ag145
ag287
aS'B'
ag726
aS'A'
ag139
ag134
ag133
aS'B'
ag384
ag137
ag139
aS'E'
aS'E'
ag134
aS'A#dim/C#'
p1145
aS'B'
ag384
ag135
ag287
ag145
ag287
ag135
ag137
aS'B'
ag132
ag431
aS'E'
ag132
aS'E'
ag293
ag383
ag728
ag287
aS'B'
aa(lp1146
g150
ag298
ag570
ag304
ag638
ag736
aS'F#dim/A'
p1147
aS'G'
ag153
ag298
ag150
ag163
ag298
ag388
ag155
ag152
ag149
ag147
aS'Go7'
p1148
ag736
ag150
ag638
ag1052
ag147
ag150
ag157
ag149
ag298
ag304
ag150
ag150
ag298
ag153
ag303
ag153
ag298
ag163
ag298
ag150
ag735
ag152
ag157
ag151
ag149
ag150
ag390
ag155
ag157
ag147
ag147
ag151
aS'Adim/C'
p1149
ag150
ag390
ag153
ag298
ag163
ag298
ag153
ag155
ag150
ag148
ag434
ag147
ag148
ag147
ag304
ag389
ag737
ag298
ag150
aa(lp1150
S'A'
ag309
ag577
ag315
ag643
ag745
aS'Fdim/Ab'
p1151
ag813
ag168
ag309
aS'A'
ag178
ag309
ag394
ag170
aS'G'
ag166
aS'D'
aS'F#o7'
p1152
ag745
aS'A'
ag643
ag1061
aS'D'
aS'A'
ag172
ag166
ag309
ag315
aS'A'
aS'A'
ag309
ag168
ag314
ag168
ag309
ag178
ag309
aS'A'
ag744
aS'G'
ag172
ag167
ag166
aS'A'
ag396
ag170
ag172
aS'D'
aS'D'
ag167
aS'G#dim/B'
p1153
aS'A'
ag396
ag168
ag309
ag178
ag309
ag168
ag170
aS'A'
ag165
ag437
aS'D'
ag165
aS'D'
ag315
ag395
ag746
ag309
aS'A'
aa(lp1154
g183
ag320
ag584
ag326
ag648
ag754
aS'Edim/G'
p1155
aS'F'
ag186
ag320
ag183
ag196
ag320
ag401
ag188
ag185
ag182
ag180
aS'Fo7'
p1156
ag754
ag183
ag648
ag1070
ag180
ag183
ag190
ag182
ag320
ag326
ag183
ag183
ag320
ag186
ag325
ag186
ag320
ag196
ag320
ag183
ag753
ag185
ag190
ag184
ag182
ag183
ag403
ag188
ag190
ag180
ag180
ag184
aS'Gdim/Bb'
p1157
ag183
ag403
ag186
ag320
ag196
ag320
ag186
ag188
ag183
ag181
ag440
ag180
ag181
ag180
ag326
ag402
ag755
ag320
ag183
aa(lp1158
g199
ag204
aS'F'
aS'Dm7/A'
p1159
ag4
aS'C'
ag3
ag207
aS'G'
aS'C'
ag4
aS'C'
ag6
ag199
ag204
ag331
ag505
aS'G'
aS'C'
ag199
ag760
ag16
aS'C'
ag4
ag16
aS'C'
ag3
ag9
aS'G'
ag10
aS'C'
ag5
ag11
ag971
aS'B7/D#'
p1160
aS'E'
ag4
ag16
ag199
ag589
ag972
aS'E'
ag330
ag331
ag10
aS'C'
aa(lp1161
g210
ag215
aS'E'
aS'C#m7/G#'
p1162
ag19
aS'B'
ag18
ag218
ag20
aS'B'
ag19
aS'B'
ag22
ag210
ag215
ag338
ag512
ag20
aS'B'
ag210
ag764
ag32
aS'B'
ag19
ag32
aS'B'
ag18
ag25
ag20
ag26
aS'B'
ag21
ag27
ag980
aS'Bb7/D'
p1163
ag765
ag19
ag32
ag210
ag594
ag981
ag765
ag337
ag338
ag26
aS'B'
aa(lp1164
g221
ag226
ag38
aS'Cm7/G'
p1165
ag36
ag34
ag35
ag229
aS'F'
ag34
ag36
ag34
ag39
ag221
ag226
ag344
ag519
aS'F'
ag34
ag221
ag771
ag49
ag34
ag36
ag49
ag34
ag35
ag42
aS'F'
ag43
ag34
ag37
ag44
ag989
aS'A7/C#'
p1166
aS'D'
ag36
ag49
ag221
ag600
ag990
aS'D'
ag343
ag344
ag43
ag34
aa(lp1167
g232
ag237
aS'D'
aS'Bm7/F#'
p1168
ag52
aS'A'
ag51
ag240
aS'E'
aS'A'
ag52
aS'A'
ag54
ag232
ag237
ag351
ag526
aS'E'
aS'A'
ag232
ag775
ag64
aS'A'
ag52
ag64
aS'A'
ag51
ag57
aS'E'
ag58
aS'A'
ag53
ag59
ag998
aS'Ab7/C'
p1169
ag776
ag52
ag64
ag232
ag605
ag999
ag776
ag350
ag351
ag58
aS'A'
aa(lp1170
g243
ag248
ag71
aS'Bbm7/F'
p1171
ag68
ag66
ag67
ag251
ag69
ag66
ag68
ag66
ag72
ag243
ag248
ag357
ag533
ag69
ag66
ag243
ag782
ag82
ag66
ag68
ag82
ag66
ag67
ag75
ag69
ag76
ag66
ag70
ag77
ag1007
aS'G7/B'
p1172
aS'C'
ag68
ag82
ag243
ag611
ag1008
aS'C'
ag356
ag357
ag76
ag66
aa(lp1173
g254
ag259
aS'C'
aS'Am7/E'
p1174
ag85
aS'G'
ag84
ag262
aS'D'
aS'G'
ag85
aS'G'
ag87
ag254
ag259
ag363
ag540
aS'D'
aS'G'
ag254
ag786
ag97
aS'G'
ag85
ag97
aS'G'
ag84
ag90
aS'D'
ag91
aS'G'
ag86
ag92
ag1016
aS'F#7/A#'
p1175
aS'B'
ag85
ag97
ag254
ag616
ag1017
aS'B'
ag362
ag363
ag91
aS'G'
aa(lp1176
g265
ag270
aS'B'
aS'G#m7/D#'
p1177
ag101
ag99
ag100
ag273
ag102
ag99
ag101
ag99
ag104
ag265
ag270
ag370
ag547
ag102
ag99
ag265
ag791
ag114
ag99
ag101
ag114
ag99
ag100
ag107
ag102
ag108
ag99
ag103
ag109
ag1025
aS'F7/A'
p1178
ag792
ag101
ag114
ag265
ag621
ag1026
ag792
ag369
ag370
ag108
ag99
aa(lp1179
g276
ag281
ag119
aS'Gm7/D'
p1180
ag117
aS'F'
ag116
ag284
aS'C'
aS'F'
ag117
aS'F'
ag120
ag276
ag281
ag376
ag554
aS'C'
aS'F'
ag276
ag797
ag130
aS'F'
ag117
ag130
aS'F'
ag116
ag123
aS'C'
ag124
aS'F'
ag118
ag125
ag1034
aS'E7/G#'
p1181
aS'A'
ag117
ag130
ag276
ag627
ag1035
aS'A'
ag375
ag376
ag124
aS'F'
aa(lp1182
g287
ag292
aS'A'
aS'F#m7/C#'
p1183
ag133
aS'E'
ag132
ag295
aS'B'
aS'E'
ag133
aS'E'
ag135
ag287
ag292
ag383
ag561
aS'B'
aS'E'
ag287
ag801
ag145
aS'E'
ag133
ag145
aS'E'
ag132
ag138
aS'B'
ag139
aS'E'
ag134
ag140
ag1043
aS'Eb7/G'
p1184
ag802
ag133
ag145
ag287
ag632
ag1044
ag802
ag382
ag383
ag139
aS'E'
aa(lp1185
g298
ag303
ag152
aS'Fm7/C'
p1186
ag149
ag147
ag148
ag306
ag150
ag147
ag149
ag147
ag153
ag298
ag303
ag389
ag568
ag150
ag147
ag298
ag808
ag163
ag147
ag149
ag163
ag147
ag148
ag156
ag150
ag157
ag147
ag151
ag158
ag1052
aS'D7/F#'
p1187
aS'G'
ag149
ag163
ag298
ag638
ag1053
aS'G'
ag388
ag389
ag157
ag147
aa(lp1188
g309
ag314
aS'G'
aS'Em7/B'
p1189
ag166
aS'D'
ag165
ag317
aS'A'
aS'D'
ag166
aS'D'
ag168
ag309
ag314
ag395
ag575
aS'A'
aS'D'
ag309
ag812
ag178
aS'D'
ag166
ag178
aS'D'
ag165
ag171
aS'A'
ag172
aS'D'
ag167
ag173
ag1061
aS'C#7/F'
p1190
ag813
ag166
ag178
ag309
ag643
ag1062
ag813
ag394
ag395
ag172
aS'D'
aa(lp1191
g320
ag325
ag185
aS'Ebm7/Bb'
p1192
ag182
ag180
ag181
ag328
ag183
ag180
ag182
ag180
ag186
ag320
ag325
ag402
ag582
ag183
ag180
ag320
ag819
ag196
ag180
ag182
ag196
ag180
ag181
ag189
ag183
ag190
ag180
ag184
ag191
ag1070
aS'C7/E'
p1193
aS'F'
ag182
ag196
ag320
ag648
ag1071
aS'F'
ag401
ag402
ag190
ag180
aa(lp1194
S'C'
aS'F'
aS'C'
ag6
ag201
ag200
ag9
aS'G'
aS'C'
ag11
ag10
ag5
ag4
aS'C'
aS'D'
aS'G'
ag3
ag4
aS'C'
ag3
ag200
aS'G'
ag10
aS'C'
aS'C'
ag6
ag8
aS'F'
ag4
aS'G'
ag10
aS'C'
ag10
aS'C'
ag8
aS'F'
aS'C'
ag3
aS'Edim/G'
p1195
aS'F'
aS'C'
ag5
ag4
ag16
aS'C'
ag3
aS'B/o7/A'
p1196
ag200
aS'G'
aS'C'
aa(lp1197
S'B'
aS'E'
aS'B'
ag22
ag212
ag211
ag25
ag20
aS'B'
ag27
ag26
ag21
ag19
aS'B'
aS'C#'
p1198
ag20
ag18
ag19
aS'B'
ag18
ag211
ag20
ag26
aS'B'
aS'B'
ag22
ag24
aS'E'
ag19
ag20
ag26
aS'B'
ag26
aS'B'
ag24
aS'E'
aS'B'
ag18
aS'D#dim/F#'
p1199
aS'E'
aS'B'
ag21
ag19
ag32
aS'B'
ag18
aS'A#/o7/G#'
p1200
ag211
ag20
aS'B'
aa(lp1201
g34
ag38
ag34
ag39
ag223
ag222
ag42
aS'F'
ag34
ag44
ag43
ag37
ag36
ag34
aS'C'
aS'F'
ag35
ag36
ag34
ag35
ag222
aS'F'
ag43
ag34
ag34
ag39
ag41
ag38
ag36
aS'F'
ag43
ag34
ag43
ag34
ag41
ag38
ag34
ag35
aS'Ddim/F'
p1202
ag38
ag34
ag37
ag36
ag49
ag34
ag35
aS'A/o7/G'
p1203
ag222
aS'F'
ag34
aa(lp1204
S'A'
aS'D'
aS'A'
ag54
ag234
ag233
ag57
aS'E'
aS'A'
ag59
ag58
ag53
ag52
aS'A'
aS'B'
aS'E'
ag51
ag52
aS'A'
ag51
ag233
aS'E'
ag58
aS'A'
aS'A'
ag54
ag56
aS'D'
ag52
aS'E'
ag58
aS'A'
ag58
aS'A'
ag56
aS'D'
aS'A'
ag51
aS'C#dim/E'
p1205
aS'D'
aS'A'
ag53
ag52
ag64
aS'A'
ag51
aS'G#/o7/F#'
p1206
ag233
aS'E'
aS'A'
aa(lp1207
g66
ag71
ag66
ag72
ag245
ag244
ag75
ag69
ag66
ag77
ag76
ag70
ag68
ag66
aS'Bb'
p1208
ag69
ag67
ag68
ag66
ag67
ag244
ag69
ag76
ag66
ag66
ag72
ag74
ag71
ag68
ag69
ag76
ag66
ag76
ag66
ag74
ag71
ag66
ag67
aS'Cdim/Eb'
p1209
ag71
ag66
ag70
ag68
ag82
ag66
ag67
aS'G/o7/F'
p1210
ag244
ag69
ag66
aa(lp1211
S'G'
aS'C'
aS'G'
ag87
ag256
ag255
ag90
aS'D'
aS'G'
ag92
ag91
ag86
ag85
aS'G'
aS'A'
aS'D'
ag84
ag85
aS'G'
ag84
ag255
aS'D'
ag91
aS'G'
aS'G'
ag87
ag89
aS'C'
ag85
aS'D'
ag91
aS'G'
ag91
aS'G'
ag89
aS'C'
aS'G'
ag84
aS'Bdim/D'
p1212
aS'C'
aS'G'
ag86
ag85
ag97
aS'G'
ag84
aS'F#/o7/E'
p1213
ag255
aS'D'
aS'G'
aa(lp1214
g99
aS'B'
ag99
ag104
ag267
ag266
ag107
ag102
ag99
ag109
ag108
ag103
ag101
ag99
aS'G#'
p1215
ag102
ag100
ag101
ag99
ag100
ag266
ag102
ag108
ag99
ag99
ag104
ag106
aS'B'
ag101
ag102
ag108
ag99
ag108
ag99
ag106
aS'B'
ag99
ag100
aS'A#dim/C#'
p1216
aS'B'
ag99
ag103
ag101
ag114
ag99
ag100
aS'F/o7/Eb'
p1217
ag266
ag102
ag99
aa(lp1218
S'F'
ag119
aS'F'
ag120
ag278
ag277
ag123
aS'C'
aS'F'
ag125
ag124
ag118
ag117
aS'F'
aS'G'
aS'C'
ag116
ag117
aS'F'
ag116
ag277
aS'C'
ag124
aS'F'
aS'F'
ag120
ag122
ag119
ag117
aS'C'
ag124
aS'F'
ag124
aS'F'
ag122
ag119
aS'F'
ag116
aS'Adim/C'
p1219
ag119
aS'F'
ag118
ag117
ag130
aS'F'
ag116
aS'E/o7/D'
p1220
ag277
aS'C'
aS'F'
aa(lp1221
S'E'
aS'A'
aS'E'
ag135
ag289
ag288
ag138
aS'B'
aS'E'
ag140
ag139
ag134
ag133
aS'E'
aS'F#'
p1222
aS'B'
ag132
ag133
aS'E'
ag132
ag288
aS'B'
ag139
aS'E'
aS'E'
ag135
ag137
aS'A'
ag133
aS'B'
ag139
aS'E'
ag139
aS'E'
ag137
aS'A'
aS'E'
ag132
aS'G#dim/B'
p1223
aS'A'
aS'E'
ag134
ag133
ag145
aS'E'
ag132
aS'D#/o7/C#'
p1224
ag288
aS'B'
aS'E'
aa(lp1225
g147
ag152
ag147
ag153
ag300
ag299
ag156
ag150
ag147
ag158
ag157
ag151
ag149
ag147
aS'F'
ag150
ag148
ag149
ag147
ag148
ag299
ag150
ag157
ag147
ag147
ag153
ag155
ag152
ag149
ag150
ag157
ag147
ag157
ag147
ag155
ag152
ag147
ag148
aS'Gdim/Bb'
p1226
ag152
ag147
ag151
ag149
ag163
ag147
ag148
aS'D/o7/C'
p1227
ag299
ag150
ag147
aa(lp1228
S'D'
aS'G'
aS'D'
ag168
ag311
ag310
ag171
aS'A'
aS'D'
ag173
ag172
ag167
ag166
aS'D'
aS'E'
aS'A'
ag165
ag166
aS'D'
ag165
ag310
aS'A'
ag172
aS'D'
aS'D'
ag168
ag170
aS'G'
ag166
aS'A'
ag172
aS'D'
ag172
aS'D'
ag170
aS'G'
aS'D'
ag165
aS'F#dim/A'
p1229
aS'G'
aS'D'
ag167
ag166
ag178
aS'D'
ag165
aS'C#/o7/B'
p1230
ag310
aS'A'
aS'D'
aa(lp1231
g180
ag185
ag180
ag186
ag322
ag321
ag189
ag183
ag180
ag191
ag190
ag184
ag182
ag180
aS'Eb'
p1232
ag183
ag181
ag182
ag180
ag181
ag321
ag183
ag190
ag180
ag180
ag186
ag188
ag185
ag182
ag183
ag190
ag180
ag190
ag180
ag188
ag185
ag180
ag181
aS'Fdim/Ab'
p1233
ag185
ag180
ag184
ag182
ag196
ag180
ag181
aS'C/o7/Bb'
p1234
ag321
ag183
ag180
aa(lp1235
g199
ag199
aS'Ab7'
p1236
aS'G'
ag332
ag204
ag199
ag330
ag334
aS'G'
aS'G'
ag10
ag332
ag829
ag655
ag6
ag203
ag10
ag199
aS'C'
aS'C'
ag4
aS'C'
ag479
ag3
aS'A'
aS'A/o7'
p1237
aS'B'
ag408
ag199
ag199
aS'G'
ag205
aS'G'
aS'G'
ag6
ag828
ag332
ag8
ag829
aS'F'
ag334
aS'G'
ag10
aS'C'
aa(lp1238
g210
ag210
aS'G7'
p1239
ag20
ag339
ag215
ag210
ag337
ag341
ag20
ag20
ag26
ag339
ag837
ag664
ag22
ag214
ag26
ag210
aS'B'
aS'B'
ag19
aS'B'
ag481
ag18
ag336
aS'G#/o7'
p1240
ag768
ag411
ag210
ag210
ag20
ag216
ag20
ag20
ag22
ag836
ag339
ag24
ag837
aS'E'
ag341
ag20
ag26
aS'B'
aa(lp1241
g221
ag221
aS'Gb7'
p1242
aS'F'
ag345
ag226
ag221
ag343
ag347
aS'F'
aS'F'
ag43
ag345
ag845
ag673
ag39
ag225
ag43
ag221
ag34
ag34
ag36
ag34
ag483
ag35
aS'G'
aS'G/o7'
p1243
aS'A'
ag414
ag221
ag221
aS'F'
ag227
aS'F'
aS'F'
ag39
ag844
ag345
ag41
ag845
ag38
ag347
aS'F'
ag43
ag34
aa(lp1244
g232
ag232
aS'F7'
p1245
aS'E'
ag352
ag237
ag232
ag350
ag354
aS'E'
aS'E'
ag58
ag352
ag853
ag682
ag54
ag236
ag58
ag232
aS'A'
aS'A'
ag52
aS'A'
ag485
ag51
ag349
aS'F#/o7'
p1246
ag779
ag417
ag232
ag232
aS'E'
ag238
aS'E'
aS'E'
ag54
ag852
ag352
ag56
ag853
aS'D'
ag354
aS'E'
ag58
aS'A'
aa(lp1247
g243
ag243
aS'Fb7'
p1248
ag69
ag358
ag248
ag243
ag356
ag360
ag69
ag69
ag76
ag358
ag861
ag691
ag72
ag247
ag76
ag243
ag66
ag66
ag68
ag66
ag487
ag67
aS'F'
aS'F/o7'
p1249
aS'G'
ag420
ag243
ag243
ag69
ag249
ag69
ag69
ag72
ag860
ag358
ag74
ag861
ag71
ag360
ag69
ag76
ag66
aa(lp1250
g254
ag254
aS'Eb7'
p1251
aS'D'
ag364
ag259
ag254
ag362
ag366
aS'D'
aS'D'
ag91
ag364
ag869
ag700
ag87
ag258
ag91
ag254
aS'G'
aS'G'
ag85
aS'G'
ag489
ag84
aS'E'
aS'E/o7'
p1252
ag789
ag423
ag254
ag254
aS'D'
ag260
aS'D'
aS'D'
ag87
ag868
ag364
ag89
ag869
aS'C'
ag366
aS'D'
ag91
aS'G'
aa(lp1253
g265
ag265
aS'D7'
p1254
ag102
ag371
ag270
ag265
ag369
ag373
ag102
ag102
ag108
ag371
ag877
ag709
ag104
ag269
ag108
ag265
ag99
ag99
ag101
ag99
ag491
ag100
ag368
aS'D#/o7'
p1255
aS'F'
ag426
ag265
ag265
ag102
ag271
ag102
ag102
ag104
ag876
ag371
ag106
ag877
aS'B'
ag373
ag102
ag108
ag99
aa(lp1256
g276
ag276
aS'Db7'
p1257
aS'C'
ag377
ag281
ag276
ag375
ag379
aS'C'
aS'C'
ag124
ag377
ag885
ag718
ag120
ag280
ag124
ag276
aS'F'
aS'F'
ag117
aS'F'
ag493
ag116
aS'D'
aS'D/o7'
p1258
aS'E'
ag429
ag276
ag276
aS'C'
ag282
aS'C'
aS'C'
ag120
ag884
ag377
ag122
ag885
ag119
ag379
aS'C'
ag124
aS'F'
aa(lp1259
g287
ag287
aS'C7'
p1260
aS'B'
ag384
ag292
ag287
ag382
ag386
aS'B'
aS'B'
ag139
ag384
ag893
ag727
ag135
ag291
ag139
ag287
aS'E'
aS'E'
ag133
aS'E'
ag495
ag132
ag381
aS'C#/o7'
p1261
ag805
ag432
ag287
ag287
aS'B'
ag293
aS'B'
aS'B'
ag135
ag892
ag384
ag137
ag893
aS'A'
ag386
aS'B'
ag139
aS'E'
aa(lp1262
g298
ag298
aS'Cb7'
p1263
ag150
ag390
ag303
ag298
ag388
ag392
ag150
ag150
ag157
ag390
ag901
ag736
ag153
ag302
ag157
ag298
ag147
ag147
ag149
ag147
ag497
ag148
aS'C'
aS'C/o7'
p1264
aS'D'
ag435
ag298
ag298
ag150
ag304
ag150
ag150
ag153
ag900
ag390
ag155
ag901
ag152
ag392
ag150
ag157
ag147
aa(lp1265
g309
ag309
aS'Bb7'
p1266
aS'A'
ag396
ag314
ag309
ag394
ag398
aS'A'
aS'A'
ag172
ag396
ag909
ag745
ag168
ag313
ag172
ag309
aS'D'
aS'D'
ag166
aS'D'
ag499
ag165
aS'B'
aS'B/o7'
p1267
ag816
ag438
ag309
ag309
aS'A'
ag315
aS'A'
aS'A'
ag168
ag908
ag396
ag170
ag909
aS'G'
ag398
aS'A'
ag172
aS'D'
aa(lp1268
g320
ag320
aS'Bbb7'
p1269
ag183
ag403
ag325
ag320
ag401
ag405
ag183
ag183
ag190
ag403
ag917
ag754
ag186
ag324
ag190
ag320
ag180
ag180
ag182
ag180
ag501
ag181
ag400
aS'Bb/o7'
p1270
aS'C'
ag441
ag320
ag320
ag183
ag326
ag183
ag183
ag186
ag916
ag403
ag188
ag917
ag185
ag405
ag183
ag190
ag180
aa(lp1271
S'C'
ag5
aS'F'
ag8
ag6
aS'C'
aS'D'
ag658
aS'G'
ag5
ag6
ag204
ag589
aS'A'
ag6
aS'C'
aS'G'
ag10
aS'C'
aS'C'
ag201
ag10
ag8
aS'F'
aS'G'
aS'C'
ag8
aS'C'
aS'F'
aS'G'
aS'C'
ag5
ag11
ag6
ag8
ag9
aS'G'
aS'C'
ag199
aS'E'
ag6
ag4
ag16
ag199
aS'G'
ag5
ag201
aS'F'
aS'C'
ag3
ag16
aS'C'
ag9
aS'G'
ag10
aS'C'
aa(lp1272
S'B'
ag21
aS'E'
ag24
ag22
aS'B'
ag1198
ag667
ag20
ag21
ag22
ag215
ag594
ag336
ag22
aS'B'
ag20
ag26
aS'B'
aS'B'
ag212
ag26
ag24
aS'E'
ag20
aS'B'
ag24
aS'B'
aS'E'
ag20
aS'B'
ag21
ag27
ag22
ag24
ag25
ag20
aS'B'
ag210
ag765
ag22
ag19
ag32
ag210
ag20
ag21
ag212
aS'E'
aS'B'
ag18
ag32
aS'B'
ag25
ag20
ag26
aS'B'
aa(lp1273
g34
ag37
ag38
ag41
ag39
ag34
aS'C'
ag676
aS'F'
ag37
ag39
ag226
ag600
aS'G'
ag39
ag34
aS'F'
ag43
ag34
ag34
ag223
ag43
ag41
ag38
aS'F'
ag34
ag41
ag34
ag38
aS'F'
ag34
ag37
ag44
ag39
ag41
ag42
aS'F'
ag34
ag221
aS'D'
ag39
ag36
ag49
ag221
aS'F'
ag37
ag223
ag38
ag34
ag35
ag49
ag34
ag42
aS'F'
ag43
ag34
aa(lp1274
S'A'
ag53
aS'D'
ag56
ag54
aS'A'
aS'B'
ag685
aS'E'
ag53
ag54
ag237
ag605
ag349
ag54
aS'A'
aS'E'
ag58
aS'A'
aS'A'
ag234
ag58
ag56
aS'D'
aS'E'
aS'A'
ag56
aS'A'
aS'D'
aS'E'
aS'A'
ag53
ag59
ag54
ag56
ag57
aS'E'
aS'A'
ag232
ag776
ag54
ag52
ag64
ag232
aS'E'
ag53
ag234
aS'D'
aS'A'
ag51
ag64
aS'A'
ag57
aS'E'
ag58
aS'A'
aa(lp1275
g66
ag70
ag71
ag74
ag72
ag66
ag1208
ag694
ag69
ag70
ag72
ag248
ag611
aS'F'
ag72
ag66
ag69
ag76
ag66
ag66
ag245
ag76
ag74
ag71
ag69
ag66
ag74
ag66
ag71
ag69
ag66
ag70
ag77
ag72
ag74
ag75
ag69
ag66
ag243
aS'C'
ag72
ag68
ag82
ag243
ag69
ag70
ag245
ag71
ag66
ag67
ag82
ag66
ag75
ag69
ag76
ag66
aa(lp1276
S'G'
ag86
aS'C'
ag89
ag87
aS'G'
aS'A'
ag703
aS'D'
ag86
ag87
ag259
ag616
aS'E'
ag87
aS'G'
aS'D'
ag91
aS'G'
aS'G'
ag256
ag91
ag89
aS'C'
aS'D'
aS'G'
ag89
aS'G'
aS'C'
aS'D'
aS'G'
ag86
ag92
ag87
ag89
ag90
aS'D'
aS'G'
ag254
aS'B'
ag87
ag85
ag97
ag254
aS'D'
ag86
ag256
aS'C'
aS'G'
ag84
ag97
aS'G'
ag90
aS'D'
ag91
aS'G'
aa(lp1277
g99
ag103
aS'B'
ag106
ag104
ag99
ag1215
ag712
ag102
ag103
ag104
ag270
ag621
ag368
ag104
ag99
ag102
ag108
ag99
ag99
ag267
ag108
ag106
aS'B'
ag102
ag99
ag106
ag99
aS'B'
ag102
ag99
ag103
ag109
ag104
ag106
ag107
ag102
ag99
ag265
ag792
ag104
ag101
ag114
ag265
ag102
ag103
ag267
aS'B'
ag99
ag100
ag114
ag99
ag107
ag102
ag108
ag99
aa(lp1278
S'F'
ag118
ag119
ag122
ag120
aS'F'
aS'G'
ag721
aS'C'
ag118
ag120
ag281
ag627
aS'D'
ag120
aS'F'
aS'C'
ag124
aS'F'
aS'F'
ag278
ag124
ag122
ag119
aS'C'
aS'F'
ag122
aS'F'
ag119
aS'C'
aS'F'
ag118
ag125
ag120
ag122
ag123
aS'C'
aS'F'
ag276
aS'A'
ag120
ag117
ag130
ag276
aS'C'
ag118
ag278
ag119
aS'F'
ag116
ag130
aS'F'
ag123
aS'C'
ag124
aS'F'
aa(lp1279
S'E'
ag134
aS'A'
ag137
ag135
aS'E'
ag1222
ag730
aS'B'
ag134
ag135
ag292
ag632
ag381
ag135
aS'E'
aS'B'
ag139
aS'E'
aS'E'
ag289
ag139
ag137
aS'A'
aS'B'
aS'E'
ag137
aS'E'
aS'A'
aS'B'
aS'E'
ag134
ag140
ag135
ag137
ag138
aS'B'
aS'E'
ag287
ag802
ag135
ag133
ag145
ag287
aS'B'
ag134
ag289
aS'A'
aS'E'
ag132
ag145
aS'E'
ag138
aS'B'
ag139
aS'E'
aa(lp1280
g147
ag151
ag152
ag155
ag153
ag147
aS'F'
ag739
ag150
ag151
ag153
ag303
ag638
aS'C'
ag153
ag147
ag150
ag157
ag147
ag147
ag300
ag157
ag155
ag152
ag150
ag147
ag155
ag147
ag152
ag150
ag147
ag151
ag158
ag153
ag155
ag156
ag150
ag147
ag298
aS'G'
ag153
ag149
ag163
ag298
ag150
ag151
ag300
ag152
ag147
ag148
ag163
ag147
ag156
ag150
ag157
ag147
aa(lp1281
S'D'
ag167
aS'G'
ag170
ag168
aS'D'
aS'E'
ag748
aS'A'
ag167
ag168
ag314
ag643
aS'B'
ag168
aS'D'
aS'A'
ag172
aS'D'
aS'D'
ag311
ag172
ag170
aS'G'
aS'A'
aS'D'
ag170
aS'D'
aS'G'
aS'A'
aS'D'
ag167
ag173
ag168
ag170
ag171
aS'A'
aS'D'
ag309
ag813
ag168
ag166
ag178
ag309
aS'A'
ag167
ag311
aS'G'
aS'D'
ag165
ag178
aS'D'
ag171
aS'A'
ag172
aS'D'
aa(lp1282
g180
ag184
ag185
ag188
ag186
ag180
ag1232
ag757
ag183
ag184
ag186
ag325
ag648
ag400
ag186
ag180
ag183
ag190
ag180
ag180
ag322
ag190
ag188
ag185
ag183
ag180
ag188
ag180
ag185
ag183
ag180
ag184
ag191
ag186
ag188
ag189
ag183
ag180
ag320
aS'F'
ag186
ag182
ag196
ag320
ag183
ag184
ag322
ag185
ag180
ag181
ag196
ag180
ag189
ag183
ag190
ag180
aa.