(lp1
(lp2
VI
aVI
aVIV6
p3
aVV6
p4
aVI
aVV
aVvi
p5
aVIV
p6
aVviio6
p7
aVI
aVV
aVI
ag4
aVvi6/5
p8
ag7
aVI6
p9
aVii6/5
p10
aVV
aVV7
p11
aVI
aVI
aVI
aVii
p12
ag7
ag9
ag9
aVV4/3
p13
aVI
aVV
ag5
ag5
aViii6
p14
aVii6
p15
ag9
ag11
aVI
ag9
aVV7/IV
p16
ag6
aVI
ag4
aVV6/5
p17
aVI
ag7
ag9
aVI
aVV
ag11
ag5
ag6
aVI
aVV
aVI
ag4
ag3
ag5
ag10
aVV
ag11
aVI
aa(lp18
VI
aVvi
p19
aVI6
p20
aVIV
p21
aVV6/V
p22
aVi
aVV
aVV7
p23
aVI
aVI
aVIV
p24
aVV
aVIV6
p25
aVii6/5
p26
aVI6/4
p27
aVV
ag23
aVI
aViii
p28
aVIV6
p29
aVI
aVV
ag20
aVV7/IV
p30
ag21
aVviio6/4
p31
ag20
aVV
aVviio6
p32
aVi
aVviio6/5
p33
aVi6
p34
aViv6
p35
aVV
aVi
ag28
ag19
aVV7
p36
ag20
aVii
p37
aVviio6
p38
aVI
ag20
aVV
ag37
ag19
aVii2
p39
aVV6
p40
aVI
aVI
ag29
aVI6/4
p41
aVIV7
p42
aVV
ag36
aVI
aa(lp43
VV
aVi
aVviio6
p44
aVi6
p45
aVV4/3
p46
aVi
aVV6
p47
aVV6/5
p48
aVi
aVV
aVviio6/5
p49
ag45
aVV
aVV7
p50
aVVI
p51
aViio6
p52
aVi6/4
p53
aVV
aVi
aVV6
p54
aVI
aVviio6
p55
aVi
aVV
aVV2
p56
aVi6
p57
ag55
aVi
aViv6
p58
aVV
aVi
ag51
ag45
aVV
aVi
ag45
aVV
aVi
aVi
ag47
aVi
aViv6
p59
aVviio7/IV
p60
aVIV
p61
aVviio7/V
p62
aVV
aa(lp63
VI
aVV6
p64
aVV7
p65
aVI
aVIV6
p66
aVvii/o7
p67
aVI
aVV7
p68
aVI
ag64
aVI
aVI6
p69
aVvi
p70
aVV
aVV2
p71
aVI6
p72
aVI
aVV7
p73
aVI
aVIV
p74
aVii
p75
aVviio6
p76
ag72
aVV
aVI
aVIV6
p77
ag74
aVV
aVI
aVI
ag69
aVI
aVIV
p78
ag70
aVviio7
p79
aVi
aVV
aVI
aVV
aVIV6
p80
aVI
aVV
aVV6/V
p81
aVV
aVI
aa(lp82
VI
aVIV
p83
aVV
aVV7
p84
aVvi
p85
aVV6
p86
aVii
p87
aVii7
p88
ag84
aVI
ag86
aVI
aVIV6
p89
aVI6
p90
ag83
aVV
ag84
aVI
aVI
ag86
aViii6
p91
ag89
ag86
aVI
ag84
aVI
ag83
aVV
aVV2
p92
aVI6
p93
aVV6/5
p94
aVI
aVii
p95
aVV7
p96
aVI
aVI
aVI
ag83
ag86
aVV6/5
p97
aVV6
p98
aVi
aVV
ag98
aVV6/5
p99
aVi
aVi6
p100
aViv6
p101
aViio6
p102
aVi6/4
p103
aVV7
p104
aVi
aVi
aVviio6
p105
ag90
aVvii/o7
p106
aVi
aVii/o2
p107
aVV6
p108
aVV6/5
p109
aVi
aVV7
p110
aVI
aViii
p111
ag85
aVV
aVI
ag85
ag111
aVI
aVii6/5
p112
ag88
aVV
ag84
aVI
aa(lp113
VI
aVI
aVV6
p114
aVV2/IV
p115
aVIV6
p116
aVV
aVI
aVIV
p117
aVI6
p118
aVii7
p119
aVviio6
p120
aVI
aVV
aVI
aVI
aVV6/5
p121
aVI
aVii
p122
aVvi
p123
aVii6/5
p124
aVV
aVI
aVIV
p125
ag120
ag118
aVii6/5
p126
aVV
aVV7
p127
aVI
aa(lp128
VI
aVvi
p129
aViii
p130
aVIV
p131
aVV2
p132
aVI6
p133
aVii6/5
p134
aVV
aVI
aVI
aVV6/vi
p135
aVV7/vi
p136
ag129
ag132
ag133
ag134
aVV
aVI
aVI
ag131
aVI
aVviio6
p137
aVV6
p138
aVi
aVii/o6/5
p139
aVV
aVi
aVV6/5
p140
aVI
aVV2/IV
p141
aVIV6
p142
aVii6/5
p143
aVV
aVV7
p144
aVI
aVvi
p145
ag129
aVIV6
p146
aVV6
p147
aVV
aVI
aVV7
p148
aVI
aVV6
p149
aVvi
p150
aVIV
p151
aViio
p152
aVV7
p153
aVVI
p154
ag153
aVI
aVV
aVI
ag129
aVii
p155
ag151
aVvii/o7
p156
aVI
aVV
aVV6
p157
ag140
aVI
aVIV
p158
aVV
ag144
aVI
ag145
aVii
p159
aVviio6
p160
aVI
aVV
ag144
ag145
aVv6
p161
aVbVII7[maj7]
p162
aVvii/o7
p163
aVI
ag135
ag146
aVV6/5
p164
aVI
aVV
aVV7
p165
ag129
ag134
aVI6/4
p166
aVV
ag165
aVI
aa(lp167
Vi
aVV2/iv
p168
aViv6
p169
aVi6/4
p170
aVii/o6/5
p171
aVV
aVV7
p172
aVi
aVi
aVi
aVviio6/4
p173
aVI6
p174
aVI
aVii6/5
p175
aVV
aVV7
p176
aVI
aVVI
p177
aViio6
p178
ag172
ag177
ag171
aVV
ag172
aVi
aVV
aVi
aVV
aVI
aVI
aVIV
p179
aVii
p180
aVii/o6/5
p181
aVV
aVV7
p182
aVi
aVV2
p183
aVi6
p184
aVii/o7
p185
aVviio6
p186
aVi
ag171
aVV
ag172
aVi
aVi
ag184
aVv
aVv6
p187
aVV
aVV7
p188
aVI
aVI
aVV/ii
p189
aVV6/4/ii
p190
ag180
aVviio6
p191
ag174
aVV
ag176
aVI
aVI
ag179
ag180
aVV
aVV2
p192
aViii
p193
aVvi
p194
ag184
aVi
aVV
aVI
aa(lp195
VI
aVvi
p196
aVV7
p197
aVI
aVV2
p198
aVI6
p199
aVV
aVV7
p200
aVI
aVV6/vi
p201
aVV6/5/vi
p202
aVIV6
p203
aVvii/o7
p204
aVI
aVIV7
p205
aVV2
p206
aVI
aVV
ag197
aVI
aVV
aVV
aVviio6
p207
aVi
aVvii/o7/V
p208
aVV
aVV7
p209
aVi
aVi
aVV4/3
p210
aVi6
p211
aVV6/5/iv
p212
aViv
p213
aVV6/5/V
p214
aVV
aVV7
p215
aVi
aVV
aVI6
p216
aVI
ag203
aVviio
p217
aVI
ag196
aVV6/5/V
p218
aVV7/V
p219
aVV
ag216
aVIV
p220
ag197
aVIV6/5
p221
ag217
aVI
aVii6/5
p222
aVV
aVI
aa(lp223
VV2
p224
aVi6
p225
aVviio6
p226
aVi
aVVII6
p227
aVIII
p228
aVvio6
p229
aVV
aVi
aVV7
p230
aVV2
p231
aVI6
p232
aVIV
p233
aVI
aVii
p234
aVV
ag225
ag227
aVi
aVviio6/VII
p235
aVVII
p236
aViv6
p237
aViio6
p238
aVV
aVi
aVi
aVv
ag228
aVV6
p239
aVV6/5
p240
aVI
aVI6/4
p241
aVV7
p242
aVI
aVIV
p243
aVvi
p244
aVV/vi
p245
aVV7/vi
p246
ag233
aVI
aViv6
p247
aVi6/4
p248
aVV6/5/V
p249
aVi
aVV
aa(lp250
VI
aVI
aVV6
p251
aVV2/IV
p252
aVIV6
p253
aVI
aVIV
p254
aVV6/ii
p255
aVV
aVV2
p256
aVI6
p257
aVIV
p258
aVV
aVI
aVV
aVI
aVV4/3
p259
aVI6
p260
aVI
aVIV
p261
aVV7
p262
aVI
aVV6
p263
aVV
aVvi
p264
aVii6/5
p265
aVV
aVV7
p266
aVI
aVV
aVI
aVV6/5/vi
p267
aVvi
p268
aVV6/4
p269
aVi
aVii/o6/5
p270
aVii/o4/3
p271
aVv6
p272
aVV
ag256
aVV4/3
p273
aVI
aVI
aVI
ag251
aVvi7
p274
ag251
aVV
ag253
aVvii/o7
p275
aVI
aVV
aVi6/4
p276
aVii/o4/3
p277
aVV
aVV7
p278
aVVI
p279
ag276
aVii/o6/5
p280
aVi
aVv
aVV6
p281
aVV6/5
p282
aVi
aViv6
p283
aVvii/o4/3
p284
ag257
aVii7
p285
ag266
aVI
aVV6/5
p286
aVi
aVi6
p287
aVviio6
p288
aVviio4/3
p289
aVV6/iv
p290
aViv
p291
aVI
aVv
aVVII
p292
ag256
ag257
ag285
aVV
aVV
ag256
ag257
aVI6/4
p293
aVV
ag266
aVI
aa(lp294
Vi
aVi
aVV6
p295
aVI
aVI6/4
p296
aVV2
p297
aVI6
p298
aVI
aVIV
p299
aVI
aVI
aVV4/3/vi
p300
aVvi
p301
aVV6/5/V
p302
aVV
aVI
aVI
ag301
aVV6/5
p303
aVV7
p304
aVI
aVvi
p305
aVV6/5/V
p306
aVV
aVV6/V
p307
aVV
aVi
aViv6
p308
ag297
ag298
aVV6/V
p309
aVV
aVviio7
p310
aVi
aViv7
p311
aVv7
p312
aVVI
p313
aVviio7/V
p314
aVV
aVI
aa(lp315
Vi
aVI6
p316
aVIV
p317
ag316
aVI
aVV
aVii7/V
p318
aVV4/3/V
p319
aVvi6/V
p320
aVV
aVI
aVI
aVV
aVV7
p321
aVvi
p322
aVv
aVv2
p323
aVi6
p324
aVviio6
p325
aVi
aVviio7
p326
aVi
aViv7
p327
aVV
aVV7
p328
aVi
aVi
ag327
aViv6
p329
aVV
ag328
aVi
ag329
aVV6/5/iv
p330
aViv
p331
aVV6
p332
aVVI6
p333
aVV6/III
p334
aVIII
p335
aVIII6
p336
aVIV6/5
p337
ag332
aVi
aVIV6
p338
aVI
aVIV6
p339
aVi
aVV
aVi
aVV
ag317
aVV2
p340
ag316
aVV
aVI
aVIV2
p341
ag325
aVi
ag329
aVi6/4
p342
aVii/o6/5
p343
aVV
ag328
aVI
aa(lp344
VI
aVvi
p345
aViii
p346
aVIV
p347
aVV7
p348
ag345
aVV
aVI
aVV
ag346
aVIV6
p349
aVvii/o7
p350
aVI
aVV6
p351
ag349
aVIV7
p352
aVV
ag348
aVI
aVI
aVV
aVI
ag347
aVI6
p353
aVIV6
p354
aVIV6/5
p355
aVV6
p356
aVi
aVi
aVV6
p357
aVV
aVV7
p358
aVI
aVIV6
p359
aVii6/5
p360
aVV
ag358
aVI
aVvi
p361
ag361
aVviio6
p362
aVI6
p363
aVii
p364
aVV2
p365
ag353
aVV
aVI
aVV
ag365
ag346
ag345
aVviio
p366
aVI
ag351
ag349
ag352
aVV
ag348
aVI
aa(lp367
Vi
aVV2
p368
aVi6
p369
aVviio6
p370
aVi
aVii/o2
p371
aVV6/5
p372
aVi
aVVI
p373
aVii/o6/5
p374
aVV
aVV7
p375
aVI
aVV6
p376
aVi
aVi6
p377
aVviio6/5
p378
ag376
aVV
aVi
aVV
ag377
aVV7
p379
aVi
aVi
aViv6
p380
aViv
p381
aVi
aVii6/5
p382
aVV
aVI
aVvi
p383
aVVI6
p384
aVV4/3
p385
aVI6
p386
aVV6
p387
ag372
aVi
ag373
ag374
aVV
aVi
aViio6
p388
aVI
aVIV
p389
aVV
aVii/o4/3
p390
aVIII+6/5
p391
ag377
aVii/o6/5
p392
aVV
ag379
aVVI
p393
aVV6/iv
p394
aVV6/5/iv
p395
ag381
aViio6
p396
aVi6/4
p397
ag379
aVI
aa(lp398
VV
aVi
aVv6
p399
aViv6
p400
aVv
aViv
p401
aVviio6/III
p402
aVIII
p403
aVviio6
p404
aVi
aVV
aVV6/5
p405
aVi
aViio6
p406
aVI6
p407
aVIV
p408
aVV6
p409
aVI
aVviio7/iv
p410
ag401
aVV
aVv
aVVI6
p411
aVI
aVV
aVV7
p412
aVV6
p413
aVi
ag400
aVV
aVV
aVi
ag404
aVi6
p414
ag404
aVi
ag405
aVi
aVV
aVV6/5/iv
p415
aVIV
p416
aVV7
p417
aVvi
p418
aVV6
p419
aVV
aVV2
p420
aVI6
p421
ag412
aVI
aVI
ag418
aVviio6/V
p422
aVV
ag420
ag404
aVi
ag405
aVi
aVviio6
p423
ag421
aVV
aVIV6
p424
aVvii/o7
p425
aVI
aVIV6
p426
aVI
aViv6
p427
aVi6/4
p428
aVV6/5/V
p429
aVi
aVV
aa(lp430
Vi
aVi6
p431
aVIV
p432
aVii4/3
p433
aVV6
p434
aVI
aVIV6
p435
aVIV7
p436
aVV
aVI
ag434
aVI
aVviio6
p437
aVi
ag431
aVi6/4
p438
aVii/o6/5
p439
aVV
aVI
aVi
aVVII6
p440
aVV6/5
p441
aVI
aVV6
p442
aVV6/5
p443
aVI
aVIV6
p444
aVii6/5
p445
aVV
aVV7
p446
aVI
aVvi
p447
aVii
p448
aVVI6
p449
aVV6/5/III
p450
aVIII
p451
aVV6
p452
aVV6/5
p453
aVi
aVv
aVV6/III
p454
ag451
aViio6
p455
aVi6/4
p456
aVV7
p457
aVI
aa(lp458
VI
aVIV
p459
aVI
aVviio6
p460
aViii
p461
aVI6/4
p462
aVii6/5
p463
aVV
aVI
aVii
p464
aVV7
p465
aVvi
p466
aVV6
p467
aVI
aVV/V
p468
aVV
aVIV6
p469
ag467
aVI
ag469
aVI6/4
p470
aVV
ag465
aVI
aVI
aVviio6
p471
aVI6
p472
aVIV
p473
aVV6
p474
aVV
aVV7
p475
aVI
ag475
aVI
aVI6
p476
ag459
aVI
ag469
aVviio6/IV
p477
ag459
aVI
ag466
ag467
aVV6/5
p478
aVI
ag469
aVvii/o2
p479
ag470
aVV
aVI
aa(lp480
Vi
aVi
aVIt6
p481
aVV
aVV2
p482
aVi6
p483
aVi
aViio6
p484
aVviio7/V
p485
aVV
aVV
aVV7
p486
ag482
aVV6/iv
p487
aViv
p488
aVviio6
p489
aVviio6/5
p490
ag486
aVi
aVI
aVI
aVV6
p491
aVI
aVV2/IV
p492
aVIV6
p493
aVVI
p494
aVvi/o7
p495
aVVII
p496
aVviio7
p497
aVi
aVi
aVV
aViv6
p498
aVV
aVV
ag489
aVviio4/3
p499
ag482
aVI6
p500
ag487
aVIV
p501
ag485
aVV
ag486
aVI
aa(lp502
VI
aVvi
p503
aVIV
p504
aVI6
p505
aVviio6
p506
aVI
aVV/V
p507
aVV7/V
p508
aVV
ag503
aVviio6
p509
aVi6
p510
aVv
aVVI
p511
ag506
aVI
aVV
aVV7
p512
aVI
aVI
aViii
p513
aVV7
p514
aVI6
p515
aVIV
p516
aVV
aVI
ag505
aVI
ag504
aVV
aVI
aVvi
p517
aVii
p518
aVviio6
p519
ag515
aVii6/5
p520
aVV
aVI
aVi
aVIII
p521
aVviio6
p522
aVV6
p523
aVV6/5
p524
aVi
aVV
ag503
ag513
ag504
aVI
aVIV6
p525
aVV6/5
p526
aVI
aVii6/5
p527
aVV
ag512
aVI
aa.