(dp1
S'V7/V'
p2
S'D7'
p3
sS'V/V'
p4
S'D'
sS'VI7'
p5
S'A7'
p6
sS'Vs4'
p7
S'Gsus4'
p8
sS'V/III'
p9
S'B'
sS'V65'
p10
S'G7/B'
p11
sS'V64'
p12
S'G/D'
p13
sS'VId9'
p14
S'A9'
p15
sS'iih65'
p16
S'Dm7/F'
p17
sS'bVI7'
p18
S'A-7'
p19
sS'bVI6'
p20
S'A-/C'
p21
sS'vii'
p22
S'Bm'
p23
sS'bVII'
p24
S'B-'
p25
sS'Vs4/vi'
p26
S'Gsus4'
p27
sS'v65'
p28
S'Gm7/B-'
p29
sS'v64'
p30
S'Gm/D'
p31
sS'viih7'
p32
S'Bm7'
p33
sS'bVII64'
p34
S'B-/F'
p35
sS'V/ii'
p36
S'A'
sS'vi6'
p37
S'Am/C'
p38
sS'VII'
p39
S'B'
sS'bVId7/V'
p40
S'E-7'
p41
sS'I64'
p42
S'C/G'
p43
sS'iih65/ii'
p44
S'Em7/G'
p45
sS'ii7/vi'
p46
S'Bm7'
p47
sS'bIII6'
p48
S'E-/G'
p49
sS'II7'
p50
S'D7'
p51
sS'viix42/V'
p52
S'F#o7/E-'
p53
sS'IV6'
p54
S'F/A'
p55
sS'V42'
p56
S'G7/F'
p57
sS'viix43/V'
p58
S'F#o7/C'
p59
sS'bVI'
p60
S'A-'
p61
sS'IV9'
p62
S'FM9'
p63
sS'V7/vi'
p64
S'E7'
p65
sS'bVId7/ii'
p66
S'B--7'
p67
sS'bVb5'
p68
S'G-'
p69
sS'viix7/V'
p70
S'F#o7'
p71
sS'iii64'
p72
S'Em/B'
p73
sS'V65/vi'
p74
S'E7/G#'
p75
sS'iih43'
p76
S'Dm7/A'
p77
sS'V/vi'
p78
S'E'
sS'IVd43'
p79
S'Fmaj7/C'
p80
sS'bII'
p81
S'D-'
p82
sS'viio/ii'
p83
S'C#dim'
p84
sS'viio/V'
p85
S'F#dim'
p86
sS'i6'
p87
S'Cm/E-'
p88
sS'V7/bIII'
p89
S'B-7'
p90
sS'#IV'
p91
S'F#'
p92
sS'bIII'
p93
S'E-'
p94
sS'ii7'
p95
S'Dm7'
p96
sS'IId7'
p97
S'D7'
p98
sS'viix42'
p99
S'Bo7/A-'
p100
sS'V6/V'
p101
S'D/F#'
p102
sS'ii9'
p103
S'Dm9'
p104
sS'III64'
p105
S'E/B'
p106
sS'bvii7'
p107
S'B-m7'
p108
sS'i42'
p109
S'CmM7/B'
p110
sS'V6/vi'
p111
S'E/G#'
p112
sS'V42/IV'
p113
S'C7/B-'
p114
sS'ii65'
p115
S'Dm7/F'
p116
sS'Id7'
p117
S'C7'
p118
sS'IVd7'
p119
S'F7'
p120
sS'vii64'
p121
S'Bm/F#'
p122
sS'bVId7'
p123
S'A-7'
p124
sS'bVIb5'
p125
S'A-'
p126
sS'v7s4'
p127
S'Gsus4'
p128
sS'vi7'
p129
S'Am7'
p130
sS'V'
S'G'
sS'iio'
p131
S'Ddim'
p132
sS'vi9'
p133
S'Am9'
p134
sS'iii'
p135
S'Em'
p136
sS'viih7/V'
p137
S'F#m7'
p138
sS'V/VII'
p139
S'F#'
p140
sS'vih7'
p141
S'Am7'
p142
sS'V7/iii'
p143
S'B7'
p144
sS'V43'
p145
S'G7/D'
p146
sS'IV7'
p147
S'Fmaj7'
p148
sS'bVII6'
p149
S'B-/D'
p150
sS'v'
S'Gm'
p151
sS'V/bIII'
p152
S'B-'
p153
sS'iv65'
p154
S'FmM7/A-'
p155
sS'iv64'
p156
S'Fm/C'
p157
sS'V/iii'
p158
S'B'
sS'V7/ii'
p159
S'A7'
p160
sS'vi'
p161
S'Am'
p162
sS'iv'
p163
S'Fm'
p164
sS'ii'
p165
S'Dm'
p166
sS'ii/IV'
p167
S'Gm'
p168
sS'bIII64'
p169
S'E-/B-'
p170
sS'biii'
p171
S'E-m'
p172
sS'iih7'
p173
S'Dm7'
p174
sS'V+11'
p175
S'G+11'
p176
sS'bV'
p177
S'G-'
p178
sS'I7'
p179
S'Cmaj7'
p180
sS'I6'
p181
S'C/E'
p182
sS'V7s4'
p183
S'Gsus4'
p184
sS'V6'
p185
S'G/B'
p186
sS'V7'
p187
S'G7'
p188
sS'V9'
p189
S'G9'
p190
sS'III'
p191
S'E'
sS'i9'
p192
S'CmM9'
p193
sS'IV65'
p194
S'Fmaj7/A'
p195
sS'IV64'
p196
S'F/C'
p197
sS'I'
S'C'
sS'VI'
p198
S'A'
sS'i7'
p199
S'CmM7'
p200
sS'IV'
p201
S'F'
sS'II'
p202
S'D'
sS'iv7'
p203
S'FmM7'
p204
sS'v6'
p205
S'Gm/B-'
p206
sS'v7'
p207
S'Gm7'
p208
sS'V7/IV'
p209
S'C7'
p210
sS'ii/V'
p211
S'Am'
p212
sS'IV/IV'
p213
S'B-'
p214
sS'i'
S'Cm'
p215
sS'V11'
p216
S'G11'
p217
sS'iii7'
p218
S'Em7'
p219
sS'iii6'
p220
S'Em/G'
p221
sS'vi64'
p222
S'Am/E'
p223
sS'viix7/vi'
p224
S'G#o7'
p225
sS'V6/ii'
p226
S'A/C#'
p227
sS'II6'
p228
S'D/F#'
p229
s.