(lp1
(lp2
S'C'
aS'F'
aS'Am7'
p3
aS'C'
aS'F'
ag3
aS'C'
aS'F'
ag3
aS'C'
aS'F'
ag3
aS'C'
aS'F'
ag3
aS'C'
aS'F'
ag3
aS'C'
aS'F'
ag3
aS'C'
aS'F'
ag3
aS'C'
aS'F'
ag3
aS'C'
aS'F'
ag3
aS'C'
aa(lp4
S'G'
aS'C'
aS'Dm7'
p5
aS'Am'
p6
aS'C'
ag5
aS'F'
ag6
aS'C'
ag5
ag6
aS'C'
ag5
aS'F'
ag6
aS'C'
ag5
ag6
aS'C'
ag5
aS'F'
aS'E'
ag6
aS'C'
ag5
aS'C'
ag5
ag6
ag5
ag6
aS'D7'
p7
aS'G7'
p8
aS'C'
ag5
ag6
aS'C'
ag5
aS'F'
aS'E'
ag6
aS'C'
aa(lp9
S'C'
aS'Em/B'
p10
ag6
aS'F'
aS'Am/E'
p11
aS'Dm'
p12
aS'C'
ag10
ag6
aS'F'
aS'B-'
p13
aS'F'
ag13
aS'C'
ag10
aS'F'
ag11
ag12
aS'C'
ag10
ag6
aS'F'
ag13
ag6
aS'F'
aS'C'
ag10
ag6
aS'F'
ag11
ag12
aS'C'
ag10
aS'F'
ag13
ag6
aS'F'
ag6
aS'C'
ag13
aS'C'
aS'G'
aS'C'
aS'G'
aS'C'
ag13
aS'C'
aS'G'
aS'C'
aS'G'
aS'F'
aS'C'
aS'G'
aS'D'
aS'A'
aS'F'
aS'C'
aS'G'
aS'D'
aS'C'
ag10
ag6
aS'F'
ag11
ag12
aS'C'
ag10
ag6
aS'F'
ag13
ag6
aS'F'
ag6
aa(lp14
S'Gsus4'
p15
aS'C'
aS'F'
aS'C'
ag13
aS'C'
aS'F'
aS'C'
ag13
aS'C'
aS'F'
aS'G'
aS'C'
aS'F'
aS'G'
aS'C'
aS'F'
aS'C'
ag13
aS'C'
aS'F'
aS'C'
ag13
aS'C'
aS'F'
aS'G'
aS'C'
aS'F'
aS'C'
aS'Em'
p16
ag6
ag16
ag6
aS'F7'
p17
aS'G'
aS'C'
aS'F'
aS'C'
ag13
aS'C'
aS'F'
aS'C'
ag13
aS'C'
aS'F'
aS'G'
aS'C'
aS'F'
aS'C'
aS'F'
aS'G'
aS'C'
aS'F'
aS'C'
ag6
ag16
ag6
ag17
aS'G'
aS'C'
aS'F'
aS'C'
ag13
aS'C'
aS'F'
aS'C'
ag13
aS'C'
aS'F'
aS'G'
aS'C'
aS'F'
aS'F'
aS'C'
aS'F'
aS'F'
aS'C'
aS'F'
aa(lp18
S'C'
ag10
ag6
aS'C/G'
p19
aS'F'
ag11
ag12
aS'G'
aS'C'
ag10
ag6
aS'F'
ag11
ag12
aS'G'
aS'C'
ag10
ag6
ag19
aS'F'
ag11
ag12
aS'G'
aS'C'
ag10
ag6
ag19
aS'F'
ag11
ag12
aS'G'
aS'C'
aS'F'
aS'C'
ag10
ag6
aS'F'
ag11
ag12
aS'G'
aS'C'
ag10
ag6
aS'F'
ag11
ag12
aS'G'
aS'C'
ag10
ag6
aS'F'
ag11
ag12
aS'G'
aS'C'
ag10
ag6
ag19
aS'F'
ag11
ag12
aS'G'
aS'C'
aS'F'
aS'C'
aS'G'
aa(lp20
S'Cm'
p21
ag13
aS'A-'
p22
ag21
ag13
ag21
ag13
ag21
ag13
ag21
ag13
ag22
ag21
ag13
ag21
ag13
ag22
ag21
ag13
ag22
ag21
ag13
ag22
ag21
ag13
ag21
ag13
ag22
ag21
ag13
ag21
ag13
ag22
ag21
ag13
ag21
ag13
ag22
ag21
ag13
ag13
ag21
ag13
ag22
ag21
ag13
ag21
ag13
ag22
ag21
ag13
ag21
ag13
ag22
ag21
ag13
ag21
ag13
ag13
ag21
ag13
ag13
ag22
ag13
aa(lp23
S'C'
aS'F'
aS'G'
aS'C'
aS'F'
aS'G'
aS'C'
aa(lp24
S'C'
ag6
aS'F'
aS'G'
aS'C'
ag6
aS'F'
aS'G'
aS'C'
ag6
aS'F'
aS'G'
aS'C'
ag6
aS'F'
aS'G'
aS'C'
ag6
aS'F'
aS'G'
aS'C'
ag6
aS'F'
aS'G'
aS'C'
ag6
aS'F'
aS'G'
aS'C'
ag6
aS'F'
aS'G'
aS'C'
ag6
aS'F'
aS'G'
aS'C'
aS'F'
ag16
ag12
aS'G'
aS'C'
aS'F'
ag16
aS'D'
aS'G'
aS'C'
ag6
aS'F'
aS'G'
aS'C'
ag6
aS'F'
aS'G'
aS'C'
ag6
aS'F'
aS'G'
aS'C'
ag6
aS'F'
aS'G'
aS'C'
aS'F'
aS'C'
aS'F'
ag16
ag12
aS'G'
aS'C'
aS'F'
ag16
aS'D'
aS'G'
aS'C'
ag6
aS'F'
aS'G'
aS'C'
ag6
aS'F'
aS'G'
aS'C'
ag6
aS'F'
aS'G'
aS'C'
ag6
aS'F'
aS'G'
aS'C'
ag6
aS'F'
aS'G'
aS'C'
ag6
aS'F'
aS'G'
aa(lp25
S'C'
aS'F'
aS'C/E'
p26
ag26
aS'F'
ag26
aS'F'
ag26
aS'G'
aS'F'
ag16
ag12
aS'C'
ag26
aS'C'
aS'F'
ag26
aS'F'
ag26
aS'F'
ag26
aS'F'
ag26
aS'G'
aS'F'
ag16
ag12
aS'C'
ag26
aS'G'
aS'C'
aS'F'
ag26
aS'F'
ag26
aS'F'
ag26
aS'F'
ag26
aS'G'
aS'F'
ag16
ag12
aS'C'
ag26
aS'C'
aS'F'
ag26
aS'F'
ag26
aS'F'
ag26
ag26
aS'G'
aS'F'
ag12
aS'C'
ag26
aS'G'
aS'F'
ag16
ag12
aS'C'
ag26
aS'G'
aS'F'
ag16
ag12
aS'C'
ag26
aS'G'
aS'F'
ag16
ag12
aS'C'
aS'F'
ag26
aa(lp27
S'C'
ag13
aS'F/A'
p28
aS'C'
ag13
ag28
aS'C'
ag13
ag28
aS'C'
ag13
ag28
aS'G'
aS'F'
aS'G'
aS'E-'
p29
ag13
aS'C'
ag13
ag28
aS'C'
ag13
ag28
aS'C'
ag13
ag28
aS'C'
ag13
ag28
aS'G'
aS'F'
aS'G'
ag29
ag13
aS'C'
aS'G'
aS'F'
aS'G'
ag29
ag13
aS'C'
aS'G'
aS'F'
aS'G'
ag29
ag13
aa(lp30
S'C'
ag12
aS'G'
aS'C'
ag12
aS'G'
aS'E'
aS'A'
aS'D'
aS'G'
aS'C'
ag6
aS'F'
aS'G'
aS'C'
ag12
aS'G'
aS'C'
ag12
aS'G'
aS'E'
aS'A'
aS'D'
aS'G'
aS'C'
ag6
aS'F'
aS'G'
aS'C'
aS'G'
aS'C'
ag6
aS'F'
aS'G'
aS'C'
ag6
aS'F'
aS'G'
aa(lp31
S'F'
aS'C'
aS'F'
aS'C'
aS'F'
aS'C'
aS'Gm7'
p32
aS'F'
aS'C'
aS'F'
aS'C'
ag32
aS'F'
aS'C'
aS'F'
aS'C'
ag32
aS'F'
aS'C'
aS'C'
ag32
aS'F'
aS'C'
ag32
aS'F'
aS'C'
ag32
aS'F'
aS'C'
ag32
aS'F'
aS'F'
aS'C'
ag32
aS'F'
aS'C'
aS'F'
aS'C'
ag32
aS'F'
aS'C'
aS'F'
aS'C'
ag32
aS'F'
aS'C'
aS'F'
aS'C'
ag32
aS'F'
aS'C'
aS'C'
ag32
aS'F'
aS'C'
ag32
aS'F'
aS'C'
ag32
aS'F'
aS'C'
ag32
aS'F'
aS'C'
ag32
aS'F'
aS'F'
aS'C'
aS'F'
aS'C'
aS'F'
aS'C'
ag32
aS'F'
aS'C'
aS'F'
aS'C'
ag32
aS'F'
aS'C'
aS'F'
aS'C'
ag32
aS'F'
aS'C'
aS'F'
aS'C'
ag32
aS'F'
aS'C'
ag32
aS'F'
aS'C'
ag32
aS'F'
aS'C'
ag32
aS'F'
aS'C'
ag32
aS'F'
aS'C'
ag32
aS'F'
aS'C'
ag32
aS'F'
aS'C'
ag32
aS'F'
aS'C'
ag32
aS'F'
aS'C'
aS'F'
aS'C'
ag32
aS'F'
aS'C'
ag32
aS'F'
aS'C'
ag32
aS'F'
aS'C'
ag32
aS'F'
aS'C'
ag32
aS'F'
aa(lp33
S'F'
aS'G'
aS'C'
aS'F'
aS'G'
aS'C'
aS'F'
aS'G'
aS'C'
aS'F'
aS'G'
aS'C'
aS'F'
aS'F'
aS'G'
aS'C'
aS'F'
aS'G'
aS'C'
aS'F'
aS'F'
aS'G'
aS'C'
aS'F'
aS'G'
aS'C'
aS'F'
aS'G'
aS'C'
aS'F'
aS'G'
aS'C'
aS'F'
aS'F'
aS'G'
aS'C'
aS'F'
aS'G'
aS'C'
aS'F'
aS'F'
aS'G'
aS'C'
aS'F'
aS'G'
aS'C'
aS'F'
aa(lp34
S'C'
aS'G'
aS'C'
aS'G'
aS'C'
aS'G'
aS'C'
aS'C'
aS'G'
aS'C'
aS'G'
aS'C'
aS'G'
aS'C'
aS'F'
aS'C'
aS'F'
aS'D'
aS'F'
aS'G'
aS'C'
aS'G'
aS'C'
aS'G'
aS'C'
aS'F'
aS'G'
aS'C'
aS'C'
aS'G'
aS'C'
aS'G'
aS'C'
aS'G'
aS'C'
aS'F'
aS'C'
aS'F'
aS'D'
aS'F'
aS'G'
aS'C'
aS'G'
aS'C'
aS'G'
aS'C'
aS'G'
aS'C'
aS'C'
aS'G'
aS'C'
aS'G'
aS'C'
aS'G'
aS'C'
aS'C'
aa(lp35
S'C'
aS'F'
aS'G'
aS'C'
aS'F'
aS'C'
aS'F'
aS'G'
aS'C'
aS'F'
aS'G'
aS'C'
aS'F'
aS'G'
aS'C'
aS'F'
aS'C'
aS'F'
aS'G'
aS'C'
aS'F'
aS'G'
aS'C'
aS'F'
aS'G'
aS'C'
aS'F'
aS'C'
aS'F'
aS'G'
aS'C'
aS'F'
aS'G'
aS'C'
aS'F'
aS'G'
aS'C'
aS'F'
aS'C'
aS'F'
aS'G'
aS'C'
aS'F'
aS'G'
aS'C'
aS'F'
aS'G'
aS'C'
aS'F'
aS'C'
aS'F'
aS'G'
aS'C'
aS'F'
aS'G'
aS'C'
aS'F'
aS'G'
aS'C'
aS'F'
aS'C'
aS'F'
aS'G'
aS'C'
aS'F'
aS'G'
aa(lp36
S'C'
aS'F'
aS'C'
ag8
aS'C'
aS'C'
aS'F'
aS'C'
ag8
aS'C'
aS'C'
ag5
aS'G'
aS'C'
aS'B7'
p37
ag16
ag37
ag16
ag37
ag8
aS'C7'
p38
aS'F'
aS'C'
ag8
aS'C'
aS'C'
ag5
aS'G'
aS'C'
ag37
ag16
ag37
ag16
ag37
ag8
ag38
aS'F'
aS'C'
ag8
aS'C'
aa(lp39
g3
ag7
ag8
aS'C'
ag6
ag8
aS'Am'
p40
aS'D'
ag22
aS'G'
aS'F#'
p41
aS'G'
ag22
aS'G'
ag41
aS'G'
aS'F'
ag26
aS'F#o7/E-'
p42
aS'G/D'
p43
aS'C'
ag6
ag12
aS'C'
ag6
ag12
aS'Bm7'
p44
aS'C'
aS'G7/B'
p45
ag6
ag12
ag44
aS'G'
aS'C'
aS'G/B'
p46
ag6
aS'Fm'
p47
aS'C'
aS'C'
ag6
ag12
aS'C'
ag6
ag12
ag44
aS'C'
ag45
ag6
ag12
ag44
aS'G'
aS'C'
aS'F/C'
p48
aS'C'
ag48
aS'C'
ag48
aS'C'
ag48
aS'C'
ag48
aS'C'
aS'E/B'
p49
aS'B'
aS'E-/B-'
p50
aS'G'
aS'C'
aS'G'
aS'C'
ag22
aS'G'
ag41
aS'G'
ag22
aS'G'
ag41
aS'G'
ag48
aS'C'
ag48
aS'C'
aS'F'
ag26
aS'D'
aS'G'
ag22
aS'G'
ag41
aS'G'
ag22
aS'G'
ag41
aS'G'
aS'C'
aS'G'
aS'C'
aS'G'
aS'C'
aS'G'
aS'C'
aS'G'
aS'C'
aS'G'
aS'C'
aS'G'
aS'C'
aS'G'
aS'C'
aS'G'
ag29
ag22
aS'F#'
p51
aS'B'
aS'B-'
p52
ag29
aS'G'
aS'C'
aS'G'
aS'C'
aS'F'
aS'C'
aS'G'
aS'C'
ag48
aS'B'
ag16
aS'G'
aS'G'
aS'C'
aS'G'
aS'G'
aS'C'
aS'F'
ag12
aS'G'
ag12
aS'G'
ag12
ag12
aS'G'
aS'C'
aS'C'
ag46
ag6
aS'E/G#'
p53
ag6
ag53
ag6
ag6
ag16
ag6
ag16
ag6
ag47
aS'G11'
p54
aS'C'
aS'C'
aa(lp55
S'C'
ag29
aS'F'
aS'C'
ag29
aS'F'
aS'C'
ag29
aS'F'
aS'C'
ag29
aS'F'
aS'C'
ag29
aS'F'
aS'C'
ag29
aS'F'
aS'C'
ag29
aS'F'
aS'C'
ag29
aS'F'
aS'C'
ag29
aS'F'
ag29
aS'C'
ag13
aS'C'
ag13
aS'C'
ag29
aS'F'
aS'C'
ag29
aS'F'
aS'C'
ag29
aS'F'
aS'C'
ag29
aS'F'
aS'C'
ag29
aS'F'
ag29
aS'C'
ag13
aS'C'
ag13
aa(lp56
S'G'
aS'C'
aS'F'
aS'G'
aS'C'
aS'F'
aS'F'
ag11
ag5
ag11
aS'C'
aS'F'
ag11
ag5
ag11
aS'C'
ag6
aS'F'
aS'G'
aS'C'
aS'G'
aS'C'
aS'G'
aS'C'
aS'F'
aS'G'
aS'C'
aS'F'
aS'G'
aS'F'
ag11
ag5
ag11
aS'C'
aS'F'
ag11
ag5
ag11
aS'C'
ag6
aS'F'
aS'G'
aS'C'
aS'G'
aS'C'
aS'Gm'
p57
aS'C'
aS'F'
aS'G'
ag13
aS'C'
aS'F'
aS'G'
ag13
aS'G'
aS'C'
aS'F'
aS'G'
aS'C'
aS'F'
aS'G'
aS'F'
ag11
ag5
ag11
aS'C'
aS'F'
ag11
ag5
ag11
aS'C'
ag6
aS'F'
aS'G'
aS'C'
ag6
aS'F'
aS'G'
aS'C'
ag6
aS'F'
aS'G'
aS'C'
aS'F'
aS'G'
aS'C'
aS'F'
aS'G'
aS'C'
aS'F'
aS'G'
aS'C'
aS'F'
aS'G'
aS'C'
aa(lp58
S'Cmaj7'
p59
ag48
aS'Gsus4'
p60
aS'C'
aS'G'
aS'C'
ag48
ag60
ag59
ag48
ag60
ag59
ag48
ag60
aS'C'
aS'G'
aS'C'
ag48
ag60
ag59
ag48
ag60
aS'C'
aS'G'
aS'C'
aS'G'
aS'C'
aS'C'
aS'G'
aS'C'
ag48
ag48
aS'C'
ag48
ag60
aS'C'
ag59
ag48
ag60
aS'C'
aS'G'
aS'C'
ag48
ag60
ag59
ag48
ag60
ag59
ag48
ag60
aS'C'
aS'G'
aS'C'
ag48
ag60
ag59
ag48
ag60
aS'C'
aS'G'
aS'C'
aS'G'
aS'C'
aS'C'
aS'G'
aS'C'
ag48
ag48
aS'C'
ag48
ag60
aS'C'
ag59
ag48
ag60
aS'C'
aS'G'
aS'C'
ag48
ag60
ag59
ag48
ag60
ag59
ag48
ag60
aS'C'
aS'G'
aS'C'
ag48
ag60
ag59
ag48
ag60
aS'C'
aS'G'
aS'C'
aS'G'
aS'C'
aS'C'
aS'G'
aS'C'
ag48
ag48
aS'C'
ag48
ag60
aS'C'
aS'C'
aS'G'
aS'C'
aS'G'
aS'C'
aS'C'
aS'G'
aS'C'
ag48
ag48
aS'C'
ag48
ag60
aS'C'
aa(lp61
g48
aS'C'
ag48
aS'C'
aS'F'
ag13
aS'F'
ag59
ag12
aS'C'
aS'C'
aS'C'
aS'G'
aS'C'
aS'F'
aS'D'
aS'C'
aS'G'
aS'F'
aS'Bm/F#'
p62
aS'F#o7'
p63
ag19
aS'A7'
p64
aS'F'
aS'G#o7'
p65
aS'C'
aS'G'
aS'F'
ag62
ag63
ag19
ag64
aS'F'
aS'Bo7/A-'
p66
ag48
aS'C'
ag48
aS'C'
aS'F'
ag13
aS'F'
ag59
ag12
aS'C'
aS'F'
aS'C'
aS'C'
aS'G'
aS'C'
aS'F'
aS'D'
aS'C'
aS'G'
aS'F'
ag62
ag63
ag19
ag64
aS'F'
ag65
aS'C'
aS'G'
aS'F'
ag62
ag63
ag19
ag3
aS'F'
aS'E'
ag6
ag48
aS'C'
ag48
aS'C'
aS'F'
ag13
aS'F'
ag59
ag12
aS'C'
aS'F'
aS'C'
aS'G'
aS'C'
aS'F'
aS'D'
aS'C'
aS'G'
aS'F'
ag62
ag63
ag19
ag3
aS'F'
ag65
aS'C'
aS'G'
aS'F'
ag62
ag63
ag19
ag3
aS'F'
aS'E'
ag6
aS'D-'
p67
ag19
aa(lp68
S'C'
aS'F'
aS'C'
aS'G'
aS'C'
aS'F'
aS'C'
aS'G'
aS'C'
aS'F'
aS'C'
aS'G'
aS'C'
aS'F'
aS'C'
aS'G'
aS'G'
aS'F'
aS'G'
aS'C'
aS'F'
aS'C'
aS'G'
aS'C'
aS'F'
aS'C'
aS'G'
aS'C'
aS'F'
aS'C'
aS'G'
aS'C'
aS'F'
aS'C'
aS'G'
aS'G'
aS'F'
aS'G'
aS'G'
aS'C'
aS'F'
aS'C'
aS'C'
aS'F'
aS'C'
aS'G'
aS'C'
aS'F'
aS'C'
aS'G'
aS'C'
aS'F'
aS'C'
aS'G'
aS'C'
aS'F'
aS'C'
aS'G'
aS'C'
aS'F'
aS'C'
aS'G'
aS'G'
aS'F'
aS'G'
aS'G'
aS'C'
aS'F'
aS'C'
aS'C'
aS'F'
aS'C'
aS'C'
aS'F'
aS'C'
aa(lp69
g60
ag21
ag22
ag13
ag22
ag29
ag21
ag22
ag60
ag21
ag22
ag13
ag60
ag21
ag22
ag13
ag60
ag22
ag13
ag60
ag22
ag29
ag21
ag22
ag60
ag21
ag22
ag13
ag60
ag21
ag22
ag13
ag60
ag60
ag21
ag22
ag13
ag22
ag29
ag21
ag22
ag60
ag21
ag22
ag13
ag60
ag21
ag22
ag13
ag21
ag22
ag13
ag21
ag22
ag13
ag22
aa(lp70
S'C'
ag13
aS'F'
aS'G'
aS'C'
ag13
aS'F'
aS'G'
aS'C'
ag12
aS'CmM7'
p71
ag22
aS'B-m7'
p72
aS'C'
ag13
aS'F'
aS'G'
aS'C'
ag13
aS'F'
aS'G'
aS'C'
ag12
ag71
ag22
ag72
aS'G'
aS'C'
ag5
aS'C'
ag5
aS'C'
aa(lp73
S'C'
aS'G'
aS'C'
aS'G'
aS'C'
aS'C'
aS'G'
aS'C'
aS'G'
aS'C'
aS'G'
aS'C'
aS'C'
aS'G'
ag6
aS'F'
aS'G'
aS'C'
aS'G'
aS'C'
aS'G'
aS'C'
aS'C'
aS'C'
aS'F'
aS'C'
aS'C'
aS'F'
ag6
aS'F'
aS'G'
aS'C'
aS'C'
aS'G'
aS'C'
aS'G'
aS'C'
aS'C'
aS'G'
aS'C'
aS'G'
aS'C'
aS'G'
aS'C'
aS'C'
aS'G'
ag6
aS'F'
aS'G'
aS'C'
aS'G'
aS'C'
aS'G'
aS'C'
aS'C'
aS'C'
aS'F'
aS'C'
aS'C'
aS'F'
ag6
aS'F'
aS'G'
aS'C'
aS'C'
aS'G'
aS'C'
aS'G'
aS'C'
aS'C'
aS'G'
aS'C'
aS'G'
aS'C'
aS'G'
aS'C'
aS'C'
aS'G'
ag6
aS'F'
aS'G'
aS'C'
aS'G'
aS'C'
aS'G'
aS'C'
aS'C'
aS'G'
aS'C'
aS'C'
aS'G'
aa(lp74
S'C'
ag16
aS'F'
aS'G'
aS'F'
aS'C'
ag16
aS'F'
aS'G'
aS'C'
ag12
ag16
aS'E-m'
p75
ag12
aS'G'
aS'C'
ag12
ag16
ag75
ag12
aS'G'
aS'F'
aS'C'
aS'Em/G'
p76
ag6
ag19
aS'F'
aS'D'
aS'G'
aS'F'
aS'C'
ag76
ag6
ag19
aS'F'
aS'D'
ag6
aS'G'
aS'F'
aS'E'
aS'D'
aS'C'
aS'C'
ag16
aS'F'
aS'G'
aS'F'
aS'C'
ag16
aS'F'
aS'G'
aS'C'
ag12
ag16
ag75
ag12
aS'G'
aS'C'
ag12
ag16
ag75
ag12
aS'G'
aS'F'
aS'C'
ag76
ag6
ag19
aS'F'
aS'D'
aS'G'
aS'F'
aS'C'
ag76
ag6
ag19
aS'F'
aS'D'
ag6
aS'G'
aS'F'
aS'E'
aS'D'
aS'C'
aS'F'
aS'C'
aS'F'
aS'G'
aS'F'
aS'C'
ag76
ag6
ag19
aS'F'
aS'D'
aS'G'
aS'F'
aS'C'
ag76
ag6
ag19
aS'F'
aS'D'
ag6
aS'G'
aS'F'
aS'E'
aS'D'
aS'C'
ag6
aS'G'
aS'F'
aS'E'
aS'D'
aS'C'
aa(lp77
g21
ag13
ag21
ag13
ag21
ag13
ag21
ag13
ag21
ag13
ag21
ag13
ag21
ag13
ag21
ag13
ag21
ag29
ag21
ag29
ag21
ag29
ag21
ag21
ag13
ag21
ag13
ag21
ag13
ag21
ag13
ag21
ag29
ag21
ag29
ag21
ag29
ag21
ag47
ag22
ag47
ag22
ag47
ag22
ag47
ag21
ag29
ag21
ag29
ag21
ag29
ag21
ag47
ag22
ag47
ag22
ag47
ag22
ag47
ag22
ag47
ag22
ag47
ag13
ag21
ag13
ag21
aa(lp78
S'C'
ag13
aS'A'
ag12
aS'G'
aS'F#o7/C'
p79
aS'C'
aS'C'
ag13
aS'A'
ag12
aS'G'
aS'C'
ag38
aS'F'
ag63
aS'C'
ag7
ag8
aS'C'
ag13
aS'A'
ag12
aS'F'
ag16
ag12
aS'C#dim'
p80
ag12
aS'G'
aS'C'
aS'C'
ag13
aS'A'
ag12
aS'F'
ag16
ag12
ag80
ag12
aS'G'
aa(lp81
S'C'
aS'F'
aS'Dm7/F'
p82
aS'C'
ag8
aS'C'
ag16
aS'C'
ag16
aS'F'
ag8
aS'F'
ag8
aS'C'
aS'F'
ag82
aS'C'
ag8
aS'C'
aS'F'
ag82
aS'C'
ag8
aS'C'
ag16
aS'C'
ag16
aS'F'
ag8
aS'F'
ag8
aS'C'
aS'F'
ag82
aS'C'
ag6
aS'F'
ag8
aS'C'
aa(lp83
S'C'
aS'F'
aS'G'
aS'C'
aS'F'
aS'G'
aS'C'
aS'F'
aS'C'
aS'G'
aS'C'
aS'F'
aS'G'
aS'C'
aS'F'
aS'G'
aS'C'
aS'F'
aS'G'
aS'C'
aS'F'
aS'C'
aS'G'
aS'C'
aS'F'
aS'G'
aS'C'
aS'F'
aS'G'
aS'C'
aS'F'
aS'G'
aS'C'
aS'F'
aS'G'
aS'C'
aS'F'
aS'G'
aS'C'
aS'F'
aS'C'
aS'G'
aS'C'
aS'F'
aS'G'
aS'C'
aS'F'
aS'G'
aS'C'
aS'F'
aS'G'
aS'C'
aS'F'
aS'G'
aS'C'
aS'F'
aS'G'
aS'C'
aa(lp84
S'C'
aS'F'
aS'C'
aS'E'
ag6
ag12
aS'G'
aS'C'
aS'F'
aS'C'
aS'E'
ag6
ag12
aS'G'
aS'C'
aa(lp85
S'C'
ag28
ag19
aS'G'
aS'E'
ag6
aS'D/F#'
p86
aS'F'
ag12
aS'C'
aS'C'
aS'C'
ag6
aS'G'
ag6
aS'C'
ag48
aS'C'
ag6
aS'G'
ag6
ag6
ag12
aS'G'
aS'C'
ag48
aS'C'
aS'C'
ag48
aS'C'
ag28
aS'G'
aS'E'
ag6
ag86
aS'F'
ag12
aS'C'
aS'C'
aS'C'
ag6
aS'G'
ag6
ag6
ag12
aS'G'
aS'C'
ag48
aS'C'
aS'C'
ag48
aS'C'
ag28
aS'G'
aS'E'
ag6
ag86
aS'F'
ag12
aS'C'
ag48
aS'C'
aa(lp87
S'C'
aS'F'
aS'G'
aS'C'
aS'F'
aS'G'
ag12
aS'G'
ag12
aS'G'
aS'C'
ag5
aS'G'
aS'C'
ag5
aS'C'
aS'F'
aS'G'
aS'C'
aS'F'
aS'G'
ag12
aS'G'
ag12
aS'G'
aS'C'
ag5
aS'G'
aS'C'
ag5
aS'C'
aS'F'
aS'G'
aS'C'
aS'F'
aS'G'
ag12
aS'G'
ag12
aS'G'
aS'C'
ag5
aS'G'
aS'C'
ag5
aS'G'
aS'C'
ag5
aS'G'
aa(lp88
g21
ag28
aS'G'
ag28
aS'G'
ag21
ag13
ag22
ag13
ag21
ag13
ag22
ag13
ag21
ag13
ag22
ag13
ag21
ag13
ag28
aS'G'
aS'Gm/B-'
p89
ag21
ag13
ag22
ag13
ag21
ag13
ag28
aS'G'
aS'F'
aS'G'
ag22
ag13
ag21
aS'F'
aS'G'
ag22
ag13
ag21
aS'F'
aS'G'
ag22
ag13
ag21
ag12
ag29
aS'F'
aS'G'
ag21
ag13
ag22
ag13
ag21
ag13
ag22
ag13
ag21
ag13
ag22
ag13
ag21
ag13
ag28
aa(lp90
S'G'
aS'C'
ag6
aS'F'
aS'G'
aS'C'
ag6
aS'F'
aS'G'
aS'C'
ag6
aS'F'
aS'G'
aS'C'
aS'G'
aS'C'
ag6
aS'F'
aS'G'
aS'C'
ag6
aS'F'
aS'G'
aS'C'
ag6
aS'F'
aS'G'
aS'C'
aS'C'
aS'F'
aS'C'
aS'F'
aS'C'
aS'F'
aS'C'
aS'D'
aS'G'
aS'C'
ag6
aS'F'
aS'G'
aS'C'
ag6
aS'F'
aS'G'
aS'C'
ag6
aS'F'
aS'G'
aS'C'
aS'F'
aS'C'
aS'F'
aS'C'
aS'F'
aS'C'
aS'D'
aS'G'
aS'C'
ag6
aS'F'
aS'G'
aS'C'
ag6
aS'F'
aS'G'
aS'C'
ag6
aS'F'
aS'G'
aS'C'
aa(lp91
g21
ag12
ag29
ag13
ag22
ag29
ag13
ag22
ag21
ag12
ag29
ag13
ag22
ag29
ag13
ag22
ag21
ag12
ag29
ag13
ag22
ag29
ag13
ag22
ag21
ag12
ag29
ag13
ag22
ag29
ag13
ag22
ag21
ag12
ag29
ag13
ag22
ag29
ag13
ag22
ag21
ag12
ag29
ag13
ag22
ag29
ag13
ag22
aa(lp92
g22
ag21
ag22
ag21
ag22
ag21
ag22
ag21
aS'Fmaj7/C'
p93
aS'A-/C'
p94
ag21
ag93
ag94
ag21
ag22
ag21
ag22
ag21
ag93
ag94
ag21
ag93
ag94
ag22
ag21
ag22
ag21
ag22
ag21
ag22
ag21
ag93
ag94
ag21
ag93
ag94
aa(lp95
g21
ag29
ag21
ag29
aS'Gm/D'
p96
ag12
ag96
ag96
ag12
ag96
ag12
ag57
ag12
ag57
ag21
ag12
ag57
ag21
ag21
ag29
ag21
ag29
ag96
ag12
ag96
ag96
ag12
ag96
ag12
ag57
ag12
ag57
ag21
ag12
ag57
ag21
ag12
ag96
ag12
ag12
ag96
ag12
ag12
ag96
ag12
ag12
ag96
ag12
ag12
ag57
ag12
ag57
ag21
ag12
ag57
ag12
ag57
ag12
ag57
ag21
ag12
ag57
ag21
aS'Fm/C'
p97
ag47
ag21
ag47
ag29
ag21
ag97
ag21
ag21
ag97
ag21
ag97
aa(lp98
S'C'
ag6
aS'F'
aS'G'
ag6
aS'C'
ag6
aS'F'
aS'G'
aS'C'
aS'F'
aS'C'
ag7
ag60
aS'C'
ag6
aS'F'
aS'G'
ag22
ag13
ag22
ag13
ag22
aS'C'
aS'F'
aS'C'
ag7
ag60
aS'C'
ag6
aS'F'
aS'G'
ag6
aS'F'
aS'G'
ag6
aS'C'
aS'F'
aS'C'
aS'F'
aS'C'
aS'F'
aS'C'
aS'F'
aS'C'
aS'F'
aS'C'
aS'F'
aS'C'
aS'F'
aS'C'
aS'F'
aa(lp99
S'C'
ag48
aS'C'
ag48
aS'C'
ag48
aS'C'
ag48
aS'C'
ag48
aS'C'
ag48
aS'C'
ag48
aS'C'
ag48
aS'C'
ag48
aS'C'
ag48
aS'C'
aS'C'
ag48
aS'C'
ag48
aS'C'
ag48
aS'C'
ag48
aS'C'
ag48
aS'C'
ag48
aS'C'
ag48
aS'C'
ag48
aS'C'
ag48
aS'C'
ag48
aS'C'
ag48
aS'C'
aS'C'
ag48
aS'C'
ag48
aS'C'
ag48
aS'C'
ag48
aS'C'
ag48
aS'C'
aS'C'
ag48
aS'C'
aa(lp100
S'C'
aS'Fmaj7/A'
p101
aS'G'
aS'F'
aS'C'
aS'F'
aS'C'
ag101
aS'G'
aS'F'
aS'C'
aS'F'
ag5
aS'C'
ag5
aS'C'
ag101
aS'G'
aS'F'
aS'C'
aS'F'
aS'C'
ag101
aS'G'
aS'F'
aS'C'
aS'F'
ag5
aS'C'
ag5
aS'C'
ag101
aS'G'
aS'F'
aS'C'
aS'F'
aS'C'
ag101
aS'G'
aS'F'
aS'C'
aS'F'
ag5
aS'C'
ag5
aS'C'
ag5
aS'C'
ag5
aS'C'
aS'G'
aa(lp102
g21
ag22
aS'E-/G'
p103
ag47
ag21
ag22
ag103
ag47
ag5
aS'G'
ag5
aS'G'
ag5
aS'G'
ag5
aS'G'
ag5
aS'G'
ag5
aS'G'
ag5
aS'G'
ag5
aS'G'
ag5
aS'G'
ag5
ag21
ag5
aS'G'
ag5
aS'G'
ag5
aS'G'
ag5
aS'G'
ag5
aS'G'
ag5
aS'G'
ag5
aS'G'
ag5
aS'G'
ag5
aS'G'
ag5
aS'G'
ag5
aS'G'
ag5
ag21
ag21
ag22
ag103
ag47
ag21
ag22
ag103
ag47
ag5
aS'G'
aa(lp104
S'F'
aS'C'
ag6
aS'G'
aS'F'
ag6
aS'G'
aS'F'
ag6
aS'G'
aS'F'
aS'C'
ag6
aS'G'
aS'F'
aS'C'
ag6
aS'G'
aS'F'
aS'C'
ag6
aS'G'
aS'F'
aS'C'
ag6
aS'G'
aS'F'
aS'C'
ag6
aS'G'
aS'G'
aS'F'
aS'C'
ag6
aS'G'
aS'F'
aS'C'
ag6
aS'G'
aS'F'
aS'C'
ag6
aS'G'
aS'F'
aS'C'
ag6
aS'G'
aS'F'
aS'C'
ag6
aS'G'
aS'F'
aS'C'
ag6
aS'G'
ag6
aS'G'
aS'F'
aS'C'
ag6
aS'G'
aS'F'
ag6
aS'G'
aS'F'
ag6
aS'G'
aS'F'
aS'G'
aS'F'
aS'C'
ag6
aS'G'
aS'F'
aS'C'
ag6
aS'G'
aS'F'
aS'C'
ag6
aS'G'
aS'F'
aS'C'
ag6
aS'G'
ag6
aS'G'
aS'F'
aS'C'
ag6
aS'G'
aS'F'
ag6
aS'G'
aS'F'
ag6
aS'G'
aS'F'
aS'G'
aS'F'
aS'C'
ag6
aS'G'
aS'F'
aS'C'
ag6
aS'G'
aS'F'
aS'C'
ag6
aS'G'
aS'F'
aS'C'
ag6
aS'G'
ag6
aS'G'
aS'F'
aS'C'
ag6
aS'G'
aS'F'
ag6
aS'G'
aS'F'
ag6
aS'G'
aS'F'
aS'G'
aS'F'
aS'C'
ag6
aS'G'
aS'F'
aS'C'
ag6
aS'G'
aa(lp105
S'C'
aS'F'
aS'C'
aS'G'
aS'C'
aS'F'
aS'C'
aS'G'
aS'C'
aS'C'
aS'F'
aS'C'
aS'G'
aS'C'
aS'C'
aS'F'
aS'C'
aS'G'
aS'C'
aa(lp106
S'C'
aS'F'
aS'C'
aS'F'
aS'C'
aS'F'
aS'C'
aS'F'
aS'C'
ag13
aS'F'
ag22
aS'C'
aS'F'
aS'C'
aS'F'
aS'C'
aS'F'
aS'C'
aS'F'
aS'C'
ag13
aS'F'
ag22
aS'C'
aS'F'
aS'C'
aS'F'
aS'C'
aS'F'
aS'C'
aS'F'
aS'C'
ag13
aS'F'
ag22
aS'C'
aS'F'
aS'C'
aS'F'
aS'C'
aS'F'
aS'C'
aS'F'
aS'C'
ag13
aS'F'
ag22
aS'C'
ag13
aS'F'
ag22
aS'C'
ag13
aS'F'
ag22
aS'C'
ag13
aS'F'
ag22
aa(lp107
S'C'
ag13
aS'F'
aS'C'
ag13
aS'F'
aS'C'
ag57
aS'F'
aS'C'
ag57
aS'F'
aS'C'
ag13
aS'F'
aS'C'
ag13
aS'F'
aS'C'
ag57
aS'F'
aS'C'
ag57
aS'F'
aS'C'
ag13
aS'F'
aS'C'
ag13
aS'F'
aS'C'
ag57
aS'F'
aS'C'
ag57
aS'F'
aS'C'
ag57
aS'F'
aS'C'
ag57
aS'F'
aS'C'
aa(lp108
S'G+11'
p109
aS'C'
aS'F'
aS'C'
ag109
aS'C'
aS'F'
aS'C'
ag109
aS'C'
aS'F'
aS'C'
ag109
aS'C'
aS'F'
aS'C'
aS'G'
aS'C'
aS'F'
aS'C'
ag109
aS'C'
aS'F'
aS'C'
ag109
aS'C'
aS'F'
aS'C'
ag109
aS'C'
aS'F'
aS'C'
ag109
aS'C'
aS'G'
aS'C'
aS'G'
aS'C'
aS'F'
aS'G'
aS'C'
aS'F'
aS'G'
aS'C'
aS'F'
aS'C'
ag109
aS'C'
aS'F'
aS'C'
ag109
aS'C'
aS'F'
aS'C'
ag109
aS'C'
aS'F'
aS'C'
ag109
aS'C'
aS'G'
aS'C'
aS'G'
aS'C'
aS'F'
aS'G'
aS'C'
aS'C'
aS'F'
aS'C'
aS'G'
aS'C'
aS'F'
aS'C'
aS'G'
aS'C'
aS'F'
aS'C'
ag109
aS'C'
aS'F'
aS'C'
ag109
aS'C'
aS'F'
aS'C'
ag109
aS'C'
aS'F'
aS'C'
ag109
aS'C'
aS'G'
aS'C'
aS'G'
aS'C'
aS'F'
aS'G'
aS'C'
aS'C'
aS'F'
aS'C'
aS'G'
aS'C'
aS'F'
aS'G'
aS'C'
aS'C'
aS'F'
aS'C'
aS'G'
aS'C'
aS'G'
aS'C'
aS'F'
aS'G'
aS'C'
aa(lp110
S'C'
aS'E7'
p111
ag19
ag63
ag19
ag7
ag8
ag8
aS'C'
ag111
ag19
aS'F'
ag63
ag19
ag7
ag8
ag6
aS'D7'
p112
ag6
ag37
ag16
aS'E-7'
p113
ag7
ag8
aS'C'
ag111
ag6
ag19
aS'F'
ag63
ag19
ag7
ag8
aS'C'
ag6
ag5
ag6
ag6
ag5
ag6
ag6
ag5
ag6
ag37
ag16
ag113
ag7
ag8
aS'C'
ag111
ag6
ag19
aS'F'
ag63
ag19
ag7
ag8
aS'B--7'
p114
aS'A7'
p115
ag7
ag8
aS'C'
aS'F#dim'
p116
aa(lp117
S'C'
ag13
ag22
ag13
aS'C'
ag13
ag22
ag13
aS'C'
ag13
ag22
ag13
aS'C'
ag13
ag22
ag13
aS'C'
aS'C'
ag13
ag22
ag13
aS'C'
ag13
ag22
ag13
aS'C'
ag13
ag22
ag13
aS'C'
ag13
ag22
ag13
aS'C'
ag13
ag22
ag13
aS'C'
ag13
ag22
ag13
aS'C'
ag13
ag22
ag13
aS'C'
aa(lp118
S'C'
aS'F'
aS'C'
aS'F'
ag6
aS'F'
aS'G'
ag6
aS'F'
aS'G'
ag6
aS'F'
aS'G'
aS'C'
aS'F'
aS'C'
aS'F'
ag6
aS'F'
aS'G'
ag6
aS'F'
aS'G'
ag6
aS'F'
aS'G'
ag6
aS'F'
aS'G'
ag6
aS'F'
aS'G'
ag6
aS'F'
aS'G'
ag6
aS'F'
aS'G'
ag6
aS'F'
ag6
aS'F'
aS'G'
ag6
aS'F'
aa(lp119
S'B-/F'
p120
aS'Em7/G'
p121
ag12
aS'G7/F'
p122
ag19
ag66
ag19
aS'F#m7'
p123
aS'F'
ag26
ag5
ag120
ag121
ag12
ag122
ag19
ag66
ag19
ag123
aS'F'
ag26
ag5
aS'F'
ag26
ag5
ag120
ag121
ag12
ag122
ag19
ag66
ag19
ag123
aS'F'
ag26
ag5
aS'F'
ag26
ag5
aS'F'
ag26
ag5
aS'F'
ag26
ag5
aS'F'
ag26
ag5
aS'F'
ag26
ag5
aS'F'
ag26
ag5
aa(lp124
S'C'
aS'F'
aS'C'
aS'G'
aS'F'
aS'C'
aS'F'
aS'C'
aS'G'
aS'F'
aS'C'
aS'F'
aS'C'
aS'G'
aS'F'
aS'C'
aS'C'
aS'F'
aS'C'
aS'G'
aS'F'
aS'C'
aS'F'
aS'C'
aS'G'
aS'F'
aa(lp125
g21
aS'Gm7/B-'
p126
aS'FmM7/A-'
p127
aS'G'
ag21
ag126
ag127
aS'G'
aS'C'
aS'F'
aS'C'
aS'F'
aS'C'
aS'F'
aS'C'
aS'F'
aS'C'
aS'F'
aS'C'
aS'F'
aS'C'
aS'F'
aS'C'
aS'F'
aS'C'
aS'F'
aS'C'
aS'F'
aS'C'
aS'C'
aS'F'
aS'C'
aS'F'
aS'C'
ag21
ag126
ag127
aS'G'
ag21
ag126
ag127
aS'C'
aS'F'
aS'C'
aS'F'
aS'C'
aS'F'
aS'C'
aS'F'
aS'C'
aS'F'
aS'C'
aS'F'
aS'C'
aS'F'
aS'C'
aS'F'
aS'C'
aS'F'
aS'C'
aS'F'
aS'C'
aS'C'
aS'F'
aS'C'
aS'F'
aS'C'
aS'F'
aS'C'
aS'F'
aS'C'
aS'F'
aS'C'
aS'F'
aS'C'
aS'F'
aS'C'
aS'F'
aS'C'
aS'F'
aS'C'
aS'F'
aS'C'
aS'F'
ag13
aS'F'
ag13
aS'C'
aS'F'
aS'C'
aS'F'
aS'C'
aS'C'
ag12
aS'G'
aS'C'
ag12
aS'G'
aS'C'
ag12
aS'G'
ag54
aS'C'
aS'F'
aS'C'
aS'F'
aS'C'
aS'C'
aS'F'
aS'C'
aS'F'
aS'C'
aS'C'
aS'C'
aS'C'
aS'C'
aa(lp128
S'C'
aS'F'
aS'G'
aS'F'
aS'C'
aS'F'
aS'G'
aS'F'
aS'C'
aS'F'
aS'C'
aS'F'
aS'G'
aS'C'
aS'F'
aS'G'
aS'F'
aS'C'
aS'C'
aS'F'
aS'C'
aS'F'
aS'G'
aS'C'
aS'F'
aS'G'
aS'F'
aS'C'
aa(lp129
g6
aS'C'
ag6
aS'C'
ag6
aS'F'
aS'G'
aS'C'
aS'G'
aS'C'
aS'F'
aS'G'
ag6
aS'F'
aS'G'
ag111
ag6
aS'F'
ag6
aS'F'
aS'C'
aS'G'
aS'C'
ag6
aS'C'
ag6
aS'C'
ag6
aS'F'
aS'G'
aS'C'
aS'G'
aS'C'
aS'F'
aS'G'
ag6
aS'F'
aS'G'
ag111
ag6
aS'F'
ag6
aS'F'
aS'C'
aS'G'
aS'C'
aS'C'
ag6
aS'C'
ag6
aS'F'
aS'G'
aS'C'
aS'G'
aS'C'
aS'F'
aS'G'
ag6
aS'F'
aS'G'
ag111
ag6
aS'F'
ag6
aS'F'
aS'C'
aS'G'
aS'C'
ag6
aS'C'
ag6
aS'C'
ag6
aS'F'
aS'G'
aS'C'
aS'G'
aS'C'
aS'F'
aS'G'
ag6
aS'F'
aS'G'
ag111
ag6
aS'F'
ag6
aS'F'
aS'C'
aS'G'
aS'G'
aS'C'
ag6
aS'C'
ag6
aS'F'
aS'G'
aS'C'
aS'G'
aS'C'
aS'F'
aS'G'
ag6
aS'F'
aS'G'
ag111
ag6
aS'F'
ag6
aS'F'
aS'C'
aS'G'
aS'F'
ag6
aS'F'
aS'C'
aS'G'
aS'F'
ag6
aS'F'
aS'C'
aS'F'
ag6
aS'F'
aS'G'
aa(lp130
g12
ag13
aS'G'
aS'C'
ag16
ag6
aS'F'
ag13
aS'C'
ag16
ag6
aS'F'
ag13
ag12
ag13
aS'G'
aS'C'
ag16
ag6
aS'F'
ag13
aS'C'
ag16
ag6
aS'F'
ag13
ag12
ag13
aS'G'
aS'C'
ag16
ag6
aS'F'
ag13
aS'C'
ag16
ag6
aS'F'
ag13
ag12
ag13
aS'G'
aS'C'
ag6
aS'C'
aa(lp131
S'F'
aS'C'
aS'F'
aS'C'
aS'F'
ag13
aS'C'
ag57
ag12
aS'C'
ag13
aS'F'
aS'C'
aS'F'
aS'C'
aS'F'
aS'C'
aS'F'
aS'C'
aS'F'
ag13
aS'C'
ag12
aS'C'
ag13
aS'F'
aS'C'
aS'C'
aS'F'
aS'C'
aS'F'
ag13
aS'C'
ag57
ag12
aS'C'
ag13
aS'F'
aS'C'
aS'C'
aS'F'
aS'C'
aS'F'
ag13
aS'C'
ag57
ag12
aS'C'
ag13
aS'F'
aS'C'
aS'F'
aS'C'
aS'F'
aS'C'
aS'F'
aS'C'
aS'F'
ag13
aS'C'
ag57
ag12
aS'C'
ag13
aS'F'
aS'C'
aS'F'
aS'C'
aS'F'
aS'C'
aS'F'
aS'C'
aS'F'
ag13
aS'C'
ag12
aS'C'
ag13
aS'F'
aS'C'
aa(lp132
S'C'
aS'F'
aS'C'
aS'D'
aS'G'
aS'C'
aS'F'
aS'C'
aS'G'
aS'C'
aS'G'
aS'C'
aS'G'
aS'C'
aS'F'
aS'C'
aS'D'
aS'G'
aS'C'
aS'F'
aS'C'
aS'G'
aS'C'
aS'G'
aS'C'
aS'G'
aS'C'
aS'C'
aS'G'
aS'C'
aS'G'
aS'C'
aS'G'
aS'C'
aS'G'
aS'C'
aa(lp133
g21
ag13
ag21
ag13
ag21
ag47
ag57
ag21
ag47
ag57
ag21
ag47
ag57
ag21
ag47
ag57
ag21
ag57
ag21
ag57
ag21
ag57
ag21
ag21
ag13
ag21
ag13
ag21
ag47
ag57
ag21
ag47
ag57
ag21
ag47
ag57
ag21
ag47
ag57
ag21
ag57
ag21
ag21
ag57
ag21
ag21
ag13
ag21
ag13
ag21
ag47
ag57
ag21
ag47
ag57
ag21
ag47
ag57
ag21
ag47
ag57
ag21
ag57
ag21
ag57
ag21
ag57
ag21
ag21
ag13
ag21
ag13
ag21
ag47
ag57
ag21
ag47
ag57
ag21
ag47
ag57
ag21
ag47
ag57
ag21
ag47
ag57
ag21
ag47
ag57
ag21
ag47
ag57
ag21
ag47
ag57
ag21
ag47
ag57
ag21
ag47
ag57
ag21
ag47
ag57
ag21
ag47
ag57
ag21
aa(lp134
g21
aS'G'
ag13
aS'F'
ag22
ag29
ag47
aS'G'
ag21
aS'G'
ag13
aS'F'
ag22
ag29
ag47
aS'G'
ag22
ag29
ag8
ag21
ag22
ag29
ag47
aS'G'
ag21
aS'G'
ag13
aS'F'
ag22
ag29
ag47
aS'G'
ag21
aS'G'
ag13
aS'F'
ag22
ag29
ag47
aS'G'
ag22
ag29
ag8
ag21
ag22
ag29
ag47
aS'G'
ag21
aS'G'
ag13
aS'F'
ag22
ag29
ag47
aS'G'
ag21
aS'G'
ag13
aS'F'
ag22
ag29
ag47
aS'G'
aa(lp135
g8
ag21
ag29
aS'F'
ag22
ag21
ag29
aS'G'
ag21
ag29
aS'F'
ag22
ag21
aS'G'
ag21
ag8
ag21
ag29
aS'F'
ag21
ag29
aS'G'
ag21
ag29
aS'F'
ag22
ag21
aS'G'
ag21
ag8
ag21
ag29
aS'F'
ag22
ag21
ag29
aS'G'
ag21
ag29
aS'F'
ag22
ag21
aS'G'
ag8
ag21
ag29
aS'F'
ag22
ag21
ag29
aS'G'
ag21
ag29
aS'F'
ag22
ag21
aS'G'
ag8
ag21
ag29
aS'F'
ag22
ag21
ag29
aS'G'
ag21
ag29
aS'F'
ag22
ag21
aS'G'
ag8
ag21
ag29
aS'F'
ag22
ag21
ag29
aS'G'
ag21
ag29
aS'F'
ag22
ag21
aS'G'
ag21
aa(lp136
S'Dm7'
p137
aS'C'
aS'Ddim'
p138
aS'C'
ag138
aS'C'
ag138
aS'C'
ag138
ag111
ag6
aS'Dm7/A'
p139
ag19
ag54
aS'C'
ag3
ag5
ag54
aS'E7/G#'
p140
ag3
ag139
ag19
ag139
ag6
ag54
aS'C'
ag138
aS'C'
ag138
aS'C'
ag138
aS'C'
ag138
ag111
ag6
ag139
ag19
ag54
aS'C'
ag3
ag5
ag54
ag140
ag3
ag139
ag19
ag139
ag6
ag5
ag26
ag54
ag6
ag139
ag19
ag54
aS'C'
ag3
ag5
ag54
ag140
ag3
ag139
ag19
ag139
ag19
ag139
ag19
ag139
ag19
ag139
ag19
ag139
aa(lp141
S'FM9'
p142
ag3
ag142
ag26
ag3
ag142
ag3
ag142
ag26
ag3
ag12
ag19
aS'G'
ag26
ag142
aS'C'
ag142
aS'C'
ag3
ag142
ag46
ag3
ag142
ag46
ag3
ag12
aS'G'
ag142
aS'C'
ag142
ag3
ag142
ag3
ag142
ag26
ag3
ag142
ag3
ag142
ag26
ag3
ag12
ag26
ag142
aS'C'
ag142
aS'C'
ag142
ag3
ag142
ag46
ag3
ag142
ag46
ag3
ag12
aS'G'
ag142
aS'C'
ag142
ag142
aa(lp143
g38
aS'F'
aS'C'
aS'G'
aS'C'
aS'F'
aS'C'
aS'G'
aS'C'
aS'C'
aS'F'
aS'C'
aS'G'
aS'C'
aS'F'
aS'C'
aS'G'
aS'C'
aS'F'
ag38
aS'F'
aS'C'
aS'G'
aS'C'
aS'F'
aS'C'
aS'G'
aS'C'
aS'C'
aS'F'
aS'C'
aS'G'
aS'C'
aS'F'
aS'C'
aS'G'
aS'C'
aS'F'
ag38
aS'F'
aS'C'
aS'G'
aS'C'
aS'F'
aS'C'
aS'G'
aS'C'
aS'F'
aS'C'
aa(lp144
S'C'
aS'F'
aS'C'
aS'F'
aS'C'
aS'G'
aS'C'
aS'C'
aS'F'
aS'C'
aS'F'
aS'C'
aS'G'
aS'C'
aS'C'
aS'F'
aS'C'
aS'F'
aS'C'
aS'F'
aS'C'
aS'G'
aS'C'
aS'C'
aS'F'
aS'C'
aS'F'
aS'C'
aS'G'
aS'C'
aS'C'
aS'F'
aS'C'
aS'F'
aS'C'
aS'G'
aS'C'
aS'C'
aS'F'
aS'C'
aS'F'
aS'C'
aS'F'
aS'C'
aS'G'
aS'C'
aa(lp145
g21
aS'F'
ag21
aS'G'
aS'F'
ag21
aS'F'
ag21
aS'G'
aS'F'
ag6
aS'F'
ag21
aS'F'
ag21
aS'F'
ag21
aS'F'
ag21
aS'F'
ag21
aS'F'
ag21
aS'F'
ag21
aS'G'
aS'F'
ag21
aS'F'
ag21
aS'G'
aS'F'
ag6
aS'F'
ag21
aS'F'
ag21
aS'F'
ag21
aS'F'
ag21
aS'F'
ag21
aS'F'
ag21
aS'F'
ag21
aS'G'
aS'F'
aS'F'
ag21
aS'G'
aS'F'
ag6
aS'F'
ag21
aS'F'
ag21
aS'F'
ag21
aS'F'
ag21
aS'F'
ag21
aS'F'
ag21
aa(lp146
S'C'
ag13
ag8
aS'C'
aS'C'
ag13
ag8
aS'C'
aS'C'
ag8
aS'C'
aS'C'
ag13
ag8
aS'C'
aS'F'
ag6
aS'A-7'
p147
aS'C'
ag13
aS'C'
aS'C'
ag13
aS'C'
aS'F'
ag7
ag12
aS'G'
aS'C'
aS'F'
aS'C'
ag147
aS'C'
aS'C'
aS'C'
ag13
aS'C'
aS'F'
ag7
ag12
aS'G'
aa(lp148
S'C7'
p149
ag17
ag149
aS'G'
aS'C'
aS'F'
ag22
aS'C'
aS'G'
ag149
ag17
ag149
aS'G'
aS'C'
aS'F'
ag22
aS'C'
aS'G'
ag149
aS'F'
aS'G'
aS'F'
ag149
ag17
ag149
aS'G'
aS'C'
aS'F'
ag22
aS'C'
aS'G'
ag149
ag149
aS'F'
aS'G'
aS'F'
ag149
ag17
ag149
aS'G'
aS'C'
aS'F'
ag22
aS'C'
aS'G'
ag149
aS'G'
ag149
aS'G'
aS'F'
aa(lp150
S'C'
aS'F'
aS'C'
aS'F'
aS'C'
aS'G'
aS'F'
aS'C'
aS'G'
aS'F'
aS'C'
aS'F'
aS'C'
aS'F'
aS'C'
aS'G'
aS'F'
aS'C'
aS'G'
aS'F'
aS'C'
aS'C'
aS'F'
aS'C'
aS'F'
aS'C'
aS'G'
aS'F'
aS'C'
aS'G'
aS'F'
aS'C'
aS'G'
aS'F'
aS'C'
aS'G'
aS'F'
aS'C'
aa(lp151
S'C'
aS'G'
aS'C'
aS'G'
aS'C'
aS'F'
aS'C'
aS'G'
aS'C'
aS'C'
aS'G'
aS'C'
aS'G'
aS'C'
aS'F'
aS'C'
aS'G'
aS'C'
aS'C'
aS'G'
aS'C'
aS'G'
aS'C'
aS'F'
aS'C'
aS'G'
aS'C'
aS'C'
aS'G'
aS'C'
aS'G'
aS'C'
aS'F'
aS'C'
aS'G'
aS'C'
aS'C'
aS'G'
aS'C'
aS'G'
aS'C'
aS'F'
aS'C'
aS'G'
aS'C'
aa(lp152
S'C'
aS'F'
aS'C'
aS'F'
aS'C'
aS'G'
aS'C'
aS'G'
aS'C'
aS'G'
aS'C'
aS'F'
aS'G'
aS'C'
aS'F'
aS'C'
aS'F'
aS'C'
aS'G'
aS'C'
aS'G'
aS'C'
aS'G'
aS'C'
aS'F'
aS'G'
aS'C'
aS'C'
aS'F'
aS'C'
aS'F'
aS'C'
aS'G'
aS'C'
aS'G'
aS'C'
aS'G'
aS'C'
aS'F'
aS'G'
aS'C'
aS'F'
aS'C'
aS'F'
aS'C'
aS'G'
aS'C'
aS'G'
aS'C'
aS'G'
aS'C'
aS'F'
aS'G'
aS'C'
aS'F'
aS'G'
aS'C'
aS'F'
aS'G'
aS'C'
aS'F'
aS'G'
aS'C'
aS'F'
aS'G'
aS'C'
aa(lp153
S'G'
aS'C'
aS'G'
ag6
ag16
aS'C'
aS'G'
ag6
aS'F'
aS'G'
aS'C'
ag6
aS'F'
aS'G'
aS'C'
aS'G'
ag6
ag16
aS'C'
aS'G'
ag6
aS'F'
aS'G'
aS'C'
ag6
aS'F'
aS'G'
aS'C'
ag5
aS'G'
aS'C'
ag6
ag5
aS'G'
aS'C'
aS'G'
aS'F'
aS'G'
aS'F'
aS'G'
aS'C'
aS'G'
ag6
ag16
aS'C'
aS'G'
ag6
aS'F'
aS'G'
aS'C'
ag6
aS'F'
aS'G'
aS'C'
ag5
aS'G'
aS'C'
ag6
ag5
aS'G'
aS'C'
aS'G'
aS'F'
aS'G'
aS'F'
aS'G'
aS'C'
aS'G'
ag6
ag16
aS'C'
aS'G'
ag6
aS'F'
aS'G'
aS'C'
ag6
aS'F'
aS'G'
ag16
aS'F'
aS'G'
aS'F'
aa(lp154
S'C'
aS'F'
ag12
aS'G'
ag26
aS'F'
aS'C'
aS'F'
ag6
ag26
aS'F'
aS'C'
ag12
aS'G'
aS'C'
aS'F'
ag6
ag26
aS'F'
aS'C'
ag12
aS'G'
aS'C'
ag6
ag26
aS'F'
aS'C'
ag12
aS'G'
aS'C'
aS'F'
aS'G'
ag6
ag26
aS'F'
aS'C'
ag12
aS'G'
aS'C'
aS'F'
aS'C'
aS'F'
aS'C'
aS'F'
aS'C'
aS'F'
aS'C'
aS'F'
ag6
ag26
aS'F'
aS'C'
ag12
aS'G'
aS'C'
aS'F'
ag6
ag26
aS'F'
aS'C'
ag12
aS'G'
aS'C'
aS'F'
ag6
ag26
aS'F'
aS'C'
ag12
aS'G'
aS'C'
aS'F'
aS'G'
ag6
ag26
aS'F'
aS'C'
ag12
aS'C'
aS'C'
aS'C'
aS'C'
aS'C'
aS'F'
ag12
aS'G'
ag6
aS'F'
aS'C'
ag12
aS'G'
aS'C'
aS'F'
aS'F'
aS'C'
aS'F'
ag12
aS'G'
ag6
ag26
aS'F'
aS'C'
ag12
aS'G'
aS'F'
aS'F'
aS'C'
aS'F'
ag12
aS'G'
ag26
aS'C'
aS'G'
aS'C'
aS'C'
aa(lp155
S'C'
aS'F'
aS'C'
aS'G'
aS'C'
aS'F'
aS'C'
aS'G'
aS'C'
aS'C'
aS'F'
aS'C'
aS'G'
aS'C'
aS'C'
aS'F'
aS'C'
aS'G'
aS'C'
aa(lp156
S'C'
aS'F'
aS'C'
aS'F'
aS'C'
aS'E'
aS'F'
aS'G'
aS'C'
aS'F'
aS'C'
aS'F'
aS'C'
aS'F'
aS'C'
aS'E'
aS'F'
aS'G'
aS'C'
aS'F'
aS'C'
aS'F'
aS'C'
aS'F'
aS'C'
aS'E'
aS'F'
aS'G'
aS'C'
aS'F'
aS'C'
aS'F'
aS'C'
aS'F'
aS'C'
aS'E'
aS'F'
aS'G'
aS'C'
aS'F'
aS'C'
aS'F'
aS'C'
aS'C'
aS'F'
aS'C'
aS'E'
aS'F'
aS'G'
aS'C'
aS'F'
aS'C'
aS'F'
aa(lp157
S'C'
aS'C'
aS'C'
aS'C'
aS'F'
ag11
ag12
aS'G'
aS'C'
aS'F'
aS'C'
aS'C'
aS'F'
aS'C'
aS'F'
ag11
ag12
aS'G'
aS'F'
aS'G'
aS'C'
aS'F'
aS'G'
aS'F'
aS'G'
aS'C'
aS'F'
aS'G'
aS'C'
aS'C'
aS'C'
aS'F'
aS'C'
aS'F'
ag11
ag12
aS'G'
aS'F'
aS'G'
aS'C'
aS'F'
aS'G'
aS'F'
aS'G'
aS'C'
aS'F'
aS'G'
aS'C'
aa(lp158
g21
ag22
ag21
ag22
ag21
ag22
ag21
ag22
ag67
aS'C'
ag6
aS'C'
ag6
aS'C'
ag6
aS'C'
ag6
aS'D'
aS'D'
aS'F'
aS'C'
ag6
aS'C'
ag6
aS'C'
ag6
aS'C'
ag6
aS'D'
aS'D'
aS'F'
aS'C'
ag21
ag22
ag21
ag22
ag21
ag22
ag21
ag22
ag67
aS'C'
ag6
aS'C'
ag6
aS'C'
ag6
aS'C'
ag6
aS'D'
aS'D'
aS'F'
aS'C'
ag6
aS'C'
ag6
aS'C'
ag6
aS'C'
ag6
aS'D'
aS'D'
aS'F'
aS'C'
ag67
aS'C'
ag6
aS'C'
ag6
aS'C'
ag6
aS'C'
ag6
aS'D'
aS'D'
aS'F'
aS'C'
ag6
aS'C'
ag6
aS'C'
ag6
aS'C'
ag6
aS'D'
aS'D'
aS'D'
aS'D'
aS'F'
aS'C'
aa(lp159
S'G'
aS'C'
aS'G'
ag6
aS'C7/B-'
p160
aS'F'
aS'C'
aS'G'
ag6
ag160
aS'F'
aS'C'
ag6
aS'F'
ag13
aS'C'
ag6
aS'D'
ag47
aS'C'
aS'G'
aS'C'
aS'G'
ag6
ag160
aS'F'
aS'C'
aS'G'
ag6
ag160
aS'F'
aS'C'
ag6
aS'F'
ag13
aS'C'
ag6
aS'D'
ag47
aS'C'
aS'C'
ag6
aS'F'
ag13
aS'C'
ag6
aS'D'
ag47
aS'C'
aS'G'
ag47
aS'C'
aa(lp161
S'F'
aS'C'
aS'F'
aS'F'
aS'C'
aS'F'
aS'C'
aS'F'
aS'C'
aS'F'
aS'C'
aS'F'
aS'C'
aS'F'
aS'C'
aS'F'
aS'G'
aS'F'
aS'G'
aS'F'
aS'F'
aS'C'
aS'F'
aS'G'
aS'C'
aS'F'
aS'F'
aS'C'
aS'F'
aS'F'
aS'C'
aS'F'
aS'C'
aS'F'
aS'C'
aS'F'
aS'C'
aS'F'
aS'G'
aS'F'
aS'G'
aS'F'
aS'F'
aS'C'
aS'F'
aS'G'
aS'C'
aS'F'
aS'F'
aS'C'
aS'F'
aS'F'
aS'C'
aS'F'
aS'F'
aS'C'
aS'F'
aS'C'
aS'F'
aS'C'
aS'F'
aS'C'
aS'F'
aS'F'
aS'C'
aS'F'
aS'C'
aS'F'
aS'C'
aS'F'
aS'C'
aS'F'
aS'C'
aS'F'
aS'C'
aS'F'
aS'C'
aS'F'
aS'F'
aS'C'
aS'F'
aa(lp162
g8
aS'C'
ag6
aS'F'
ag8
aS'C'
ag6
aS'F'
ag8
aS'C'
aS'F'
aS'C'
aS'F'
aS'C'
aS'F'
ag8
aS'C'
ag6
aS'F'
ag8
aS'C'
aS'F'
aS'C'
ag8
aS'C'
ag6
aS'F'
ag8
aS'C'
aS'F'
ag8
aS'C'
ag6
aS'F'
ag8
aS'C'
ag6
aS'F'
ag8
aa(lp163
S'B-7'
p164
ag57
ag21
ag47
aS'G'
ag21
ag57
ag21
ag21
ag21
ag57
ag21
ag57
ag21
ag57
ag21
ag21
ag57
ag21
ag57
ag47
aS'G'
ag21
ag21
ag57
ag21
ag57
ag21
ag57
ag21
ag57
ag21
ag57
ag21
ag57
ag21
ag57
ag57
ag47
aS'G'
ag21
ag57
ag21
ag21
ag21
ag21
ag57
aa(lp165
S'C'
aS'F'
aS'C'
aS'G'
aS'F'
aS'C'
aS'F'
aS'C'
aS'G'
aS'F'
aS'C'
aS'F'
aS'C'
aS'G'
aS'F'
aS'C'
aS'C'
aS'F'
aS'C'
aS'G'
aS'F'
aS'C'
aS'F'
aS'C'
aS'G'
aS'F'
aS'C'
aa(lp166
S'C'
aS'F'
aS'C'
aS'G'
aS'C'
aS'F'
aS'C'
aS'G'
aS'C'
aS'F'
aS'C'
aS'G'
aS'C'
aS'F'
aS'C'
aS'G'
aS'C'
aS'F'
aS'C'
aS'G'
aS'C'
aS'F'
aS'C'
aS'G'
aa(lp167
g13
aS'C'
ag13
ag13
aS'C'
ag13
ag13
ag13
aS'F'
aS'C'
ag13
aS'F'
aS'C'
ag13
aS'C'
ag13
ag13
aS'C'
ag13
ag13
ag13
aS'F'
aS'C'
ag13
aS'F'
aS'C'
ag13
aS'C'
ag13
ag13
aS'C'
ag13
aS'C'
ag13
aS'C'
ag13
aS'C'
ag13
aS'C'
ag13
aS'C'
ag13
ag13
aS'F'
aS'C'
ag13
aS'F'
aS'C'
aS'F'
aS'C'
aS'F'
aS'C'
aS'F'
aS'C'
aS'F'
aS'C'
aS'F'
aS'C'
aS'F'
aa(lp168
S'C'
aS'G'
aS'C'
ag47
aS'G'
ag47
aS'G'
ag47
aS'G'
ag47
aS'G'
ag47
aS'G'
aS'C'
ag47
aS'G'
ag47
aS'G'
ag47
aS'G'
ag47
aS'G'
ag47
aS'G'
aS'G'
ag47
aS'G'
aa(lp169
g6
ag16
ag6
ag22
ag13
aS'C'
ag12
aS'G'
aS'C'
aS'F'
ag12
aS'G'
aS'C'
aS'G'
ag21
ag22
ag13
ag21
ag22
ag13
ag21
ag13
ag21
ag6
ag16
ag6
ag22
ag13
aS'C'
ag12
aS'G'
aS'C'
aS'F'
ag12
aS'G'
aS'C'
aS'G'
ag21
ag13
ag21
ag22
ag13
ag21
ag13
ag21
ag6
ag16
ag6
ag22
ag13
aS'C'
ag12
aS'G'
aS'C'
aS'F'
ag12
aS'G'
aS'C'
aS'G'
ag21
ag22
ag13
ag21
ag13
ag21
ag13
ag21
ag21
ag13
ag21
ag13
ag21
ag13
ag21
aa(lp170
S'C'
aS'G'
ag6
aS'Dm7/F'
p171
aS'C'
aS'G'
aS'F'
aS'C'
aS'G'
ag6
ag171
aS'C'
aS'G'
aS'F'
aS'C'
ag6
ag19
aS'F'
aS'C'
aS'G'
aS'F'
aS'C'
aS'G'
ag6
ag171
aS'C'
aS'G'
aS'F'
aS'C'
aS'G'
ag6
ag171
aS'C'
aS'G'
aS'F'
aS'C'
ag6
ag19
aS'F'
aS'C'
aS'G'
aS'F'
aS'C'
ag6
ag19
aS'F'
aS'C'
aS'G'
aS'F'
aS'C'
ag6
ag19
aS'F'
aS'C'
aS'G'
aS'F'
aS'C'
aS'G'
ag6
ag171
aS'C'
aS'G'
aS'F'
aS'C'
aS'G'
ag6
ag171
aS'C'
aS'G'
aS'F'
aS'C'
ag6
ag19
aS'F'
aS'C'
aS'G'
aS'F'
aS'C'
ag6
ag19
aS'F'
aS'C'
aS'G'
aS'F'
aS'C'
ag6
ag19
aS'F'
aS'C'
aS'G'
aS'F'
aa(lp172
S'C'
aS'F'
aS'G'
aS'C'
aS'F'
aS'G'
aS'C'
aS'F'
aS'G'
aS'C'
aS'F'
aS'G'
aS'C'
aS'F'
aS'G'
aS'C'
aS'F'
aS'G'
aS'C'
aS'F'
aS'G'
aS'C'
aS'F'
aS'G'
aS'C'
aS'F'
aS'G'
aS'C'
aS'F'
aS'C'
aS'G'
aS'C'
aS'F'
aS'C'
aS'F'
aS'G'
aS'C'
aS'F'
aS'G'
aS'C'
aS'F'
aS'G'
aS'C'
aS'G'
aS'F'
aS'C'
aS'F'
aS'F'
aS'C'
aS'F'
aS'G'
aS'F'
aS'C'
aS'F'
aS'F'
ag12
aS'G'
aS'C'
aS'F'
aS'G'
aS'C'
aS'F'
aS'G'
aS'C'
aS'F'
aS'G'
aS'C'
aS'F'
aS'G'
aS'C'
aS'F'
aS'G'
aS'C'
aS'F'
aS'C'
aS'F'
aS'G'
aS'C'
aS'F'
aS'G'
aS'F'
aS'C'
aS'F'
aS'F'
aS'C'
aS'F'
aS'F'
aS'C'
aS'F'
aS'G'
aS'F'
ag12
aS'G'
aS'C'
aS'F'
aS'G'
aS'C'
aS'F'
aS'G'
aS'C'
aS'F'
aS'G'
aS'C'
aS'F'
aS'G'
aS'C'
aS'F'
aS'G'
aS'C'
aS'F'
aS'G'
aS'C'
aS'F'
aS'G'
aS'C'
aS'F'
aS'G'
aS'C'
aS'F'
aS'G'
aS'C'
aS'F'
aS'G'
aa(lp173
S'C'
aS'Am9'
p174
aS'F'
ag16
ag12
aS'C'
aS'Bm'
p175
aS'A9'
p176
ag16
ag12
aS'C'
ag16
ag176
aS'C'
ag174
aS'F'
ag16
ag12
aS'C'
ag175
ag176
ag16
ag12
aS'C'
ag16
ag176
aS'Dm9'
p177
aS'Em7'
p178
ag12
aS'F'
ag16
ag6
aS'G'
ag29
ag177
ag29
aS'F'
ag16
ag6
aS'G'
aS'C'
ag174
aS'F'
ag16
ag12
aS'C'
ag175
ag176
ag16
ag12
aS'C'
ag16
ag176
ag177
ag178
ag12
aS'F'
ag16
ag12
aS'G'
aa(lp179
S'C'
ag6
ag21
ag6
ag21
ag21
ag6
aS'F'
aS'G'
aS'C'
aS'F'
aS'G'
aS'C'
aS'F'
aS'C'
aS'D7'
p180
ag8
ag21
ag6
ag21
ag6
ag21
ag6
ag21
ag6
aS'F'
aS'G'
aS'C'
aS'F'
aS'G'
aS'C'
aS'F'
aS'C'
ag180
ag8
aS'C'
ag6
ag21
ag6
ag21
ag6
ag21
ag6
aS'F'
aS'G'
aS'C'
aS'F'
aS'G'
aS'C'
aS'F'
aS'C'
ag180
ag8
ag21
ag6
ag21
ag6
ag21
ag21
ag6
aS'F'
aS'G'
aS'C'
aS'F'
aS'G'
aS'C'
ag29
ag13
aS'C'
ag29
ag13
aS'C'
ag29
ag13
aS'C'
ag29
ag13
aS'C'
aa(lp181
S'C'
ag12
ag16
aS'F'
aS'G'
aS'C'
ag12
ag16
aS'F'
aS'G'
aS'F'
aS'G'
aS'F'
aS'G'
aS'F'
ag12
aS'F'
ag12
aS'C'
ag12
aS'F'
aS'G'
aS'G'
aS'G'
aS'G'
aS'C'
aS'G'
aS'G'
aS'C'
ag12
ag16
aS'F'
aS'G'
aS'C'
ag12
ag16
aS'F'
aS'G'
aS'F'
aS'G'
aS'F'
aS'G'
aS'F'
ag16
ag12
aS'C'
aS'F'
ag16
ag12
aS'C'
ag12
aS'F'
aS'G'
aS'G'
aS'G'
aS'G'
aS'G'
aS'G'
aS'G'
aS'C'
ag12
ag16
aS'F'
aS'G'
aS'C'
ag12
ag16
aS'F'
aS'G'
aS'F'
aS'G'
aS'F'
aS'G'
aS'F'
ag16
ag12
aS'F'
ag16
ag12
aS'C'
ag12
aS'F'
aS'G'
aS'G'
aS'G'
aS'C'
aS'G'
aS'G'
aS'G'
aS'G'
aS'C'
ag12
ag16
aS'F'
aS'G'
aS'C'
ag12
ag16
aS'F'
aS'G'
aS'F'
aS'G'
aS'F'
aS'G'
aS'F'
ag16
ag12
aS'F'
ag16
ag12
ag12
aS'F'
aS'G'
aS'G'
aS'G'
aS'G'
aS'G'
aS'G'
aa(lp182
S'F'
aS'G'
ag6
aS'F'
aS'G'
ag6
aS'F'
aS'G'
ag6
aS'F'
aS'G'
ag6
aS'G'
aS'F'
aS'G'
aS'F'
aS'G'
ag6
aS'F'
aS'G'
aS'F'
aS'G'
aS'F'
aS'G'
ag6
aS'F'
aS'G'
ag6
aS'F'
aS'G'
ag6
aS'F'
aS'G'
ag6
aS'G'
aS'F'
aS'G'
aS'F'
aS'G'
ag6
aS'F'
aS'G'
aS'C'
aS'F'
aS'G'
aS'C'
aS'C'
aS'F'
aS'G'
ag6
aS'F'
aS'G'
ag6
aS'G'
aS'F'
aS'G'
aS'F'
aS'G'
ag6
aS'F'
aS'G'
aS'F'
aS'G'
aS'F'
aS'G'
aS'C'
aS'F'
aS'G'
ag6
aS'F'
aS'G'
aS'C'
aS'F'
aS'G'
aS'F'
aS'G'
aS'C'
aS'F'
aS'G'
ag6
aS'F'
aS'G'
aS'C'
aS'F'
aS'G'
aS'F'
ag6
ag6
aS'F'
ag6
aS'F'
aS'G'
ag6
aS'G'
aS'F'
aS'F'
aS'G'
ag6
aS'F'
aS'G'
aS'C'
aS'F'
aS'G'
aS'F'
aS'G'
aS'F'
aS'G'
ag6
aS'F'
aS'G'
aS'C'
aS'F'
aS'G'
aS'F'
aS'C'
aS'F'
aS'G'
aS'C'
aS'C'
aS'F'
aS'G'
ag6
aS'F'
aS'G'
aS'C'
aS'F'
aS'G'
aa(lp183
S'C'
aS'F'
aS'G'
aS'C'
aS'F'
aS'G'
aS'C'
aS'C'
aS'F'
aS'G'
aS'C'
aS'F'
aS'G'
aS'C'
aS'C'
aS'C'
aS'F'
aS'G'
aS'C'
aS'F'
aS'G'
aS'C'
aa(lp184
g21
ag67
aS'Cm/E-'
p185
ag29
ag21
ag67
ag185
ag29
ag21
ag67
ag185
ag29
ag21
ag67
ag185
ag29
ag21
ag29
ag21
ag29
ag21
ag29
ag21
ag13
ag21
ag67
ag185
ag29
ag21
ag67
ag185
ag29
ag21
ag67
ag185
ag29
ag21
ag67
ag185
ag29
ag21
ag29
ag21
ag29
ag21
ag29
ag21
ag13
ag29
ag21
ag29
ag21
ag29
ag21
ag29
ag21
ag13
ag21
ag22
ag21
ag22
ag21
ag22
ag21
ag22
ag21
ag21
aa(lp186
g138
ag21
ag22
ag13
ag21
ag22
ag13
ag21
ag22
ag13
ag21
ag22
ag13
ag138
ag21
ag22
ag13
ag21
ag22
ag13
ag21
ag22
ag13
ag21
ag22
ag13
ag138
ag21
ag22
ag13
ag21
ag22
ag13
ag21
ag22
ag13
ag21
ag22
ag13
aa(lp187
g13
ag21
ag57
ag21
ag57
ag57
ag47
ag13
ag21
ag57
ag21
ag57
ag21
ag57
ag47
ag13
ag22
ag21
ag22
ag13
ag21
ag57
ag21
ag57
ag21
ag57
ag47
ag13
ag21
ag57
ag21
ag57
ag21
ag57
ag47
ag13
ag22
ag21
ag22
ag29
ag29
ag47
ag21
ag57
ag21
ag57
ag21
ag57
ag47
ag13
ag22
ag21
ag22
ag21
ag22
ag21
ag22
ag21
ag13
aa(lp188
S'F'
aS'C'
ag57
aS'F'
aS'C'
ag57
aS'F'
aS'C'
ag57
aS'F'
aS'C'
aS'F'
aS'C'
aS'F'
ag57
aS'F'
aS'C'
aS'F'
ag57
aS'F'
aS'C'
aS'F'
ag57
aS'F'
aS'C'
aS'F'
ag57
aS'F'
aS'C'
ag57
aS'F'
aS'C'
ag57
aS'F'
aS'C'
ag57
aS'F'
aS'C'
aS'F'
aS'C'
aS'F'
ag57
aS'C'
aS'F'
ag57
aS'F'
aS'C'
aS'F'
ag57
aS'F'
aS'C'
aS'F'
ag57
aS'F'
aS'C'
ag57
aS'F'
aS'C'
ag57
aS'F'
aS'C'
ag57
aS'F'
aS'C'
aS'F'
aS'C'
aS'F'
aS'C'
aS'F'
ag57
aS'F'
aS'C'
aS'F'
ag57
aS'F'
aS'C'
aS'F'
ag57
aS'F'
aS'C'
aS'F'
ag57
aS'F'
aS'C'
ag57
aS'F'
aS'C'
ag57
aS'F'
aS'C'
ag57
aS'F'
aS'C'
aS'F'
aS'C'
aS'F'
aa(lp189
g21
ag21
ag21
ag147
ag21
ag29
ag21
ag13
ag13
ag21
ag13
aS'G-'
p190
ag47
ag29
ag29
ag21
ag13
ag13
ag21
ag13
ag190
ag47
ag29
ag29
ag29
ag147
ag8
ag21
ag147
ag8
ag21
ag147
ag8
ag21
ag147
ag8
ag21
ag29
ag21
ag13
ag13
ag21
ag13
ag190
ag47
ag29
ag29
ag29
ag147
ag8
ag21
ag147
ag8
ag21
ag147
ag21
ag147
ag21
aa(lp191
S'G'
aS'C'
aS'F'
aS'G'
aS'C'
aS'F'
aS'G'
aS'C'
aS'F'
aS'G'
aS'C'
aS'F'
aS'G'
aS'C'
aS'F'
aS'G'
aS'G'
aS'C'
aS'F'
aS'G'
aS'C'
aS'F'
aS'G'
aS'C'
aS'F'
aS'G'
aS'C'
aS'F'
aS'G'
aS'C'
aS'F'
aS'G'
aS'G'
aS'C'
aS'F'
aS'G'
aS'C'
aS'F'
aS'G'
aS'C'
aS'F'
aS'G'
aS'C'
aS'F'
aS'G'
aS'C'
aS'F'
aS'G'
aS'C'
aS'F'
aS'G'
aS'C'
aS'F'
aS'G'
aa(lp192
S'C'
aS'G'
aS'C'
aS'G'
ag13
aS'F'
aS'G'
aS'C'
aS'G'
aS'C'
aS'G'
ag13
aS'F'
aS'G'
aS'C'
aS'G'
aS'C'
aS'G'
ag13
aS'F'
aS'G'
aS'C'
aS'G'
aS'C'
aS'G'
ag13
aS'F'
aS'G'
aS'C'
aS'G'
aS'C'
aa(lp193
S'G'
aS'F'
aS'C'
aS'G'
aS'F'
aS'C'
aS'F'
aS'C'
aS'F'
aS'G'
ag12
ag16
ag12
aS'C'
ag12
aS'G'
ag12
aS'G'
ag12
aS'G'
aS'C'
aS'G'
aS'F'
aS'C'
aS'G'
aS'F'
aS'C'
aS'F'
aS'C'
aS'F'
aS'G'
ag12
ag16
ag12
ag26
ag12
aS'G'
ag12
aS'G'
ag12
aS'G'
aS'F'
aS'G'
aS'F'
aS'C'
aS'G'
aS'F'
aS'C'
aS'F'
aS'C'
aS'F'
aS'G'
ag12
ag16
ag12
ag26
ag12
aS'G'
ag12
aS'G'
ag12
aS'G'
aS'F'
aS'G'
aS'F'
aS'C'
aS'G'
aS'F'
aS'C'
aS'F'
aS'C'
aS'F'
aS'G'
ag12
ag16
ag12
ag26
ag12
aS'G'
ag12
aS'G'
ag12
aS'G'
aS'F'
aS'C'
aS'Gsus4'
p194
aS'F'
aS'C'
aS'C'
ag194
aS'F'
aS'C'
ag194
aa(lp195
S'C'
aS'F'
aS'C'
aS'G'
aS'C'
aS'F'
aS'C'
aS'G'
aS'C'
aS'F'
aS'C'
aS'G'
aS'C'
aS'C'
aS'F'
aS'C'
aS'G'
aS'C'
aS'F'
aS'C'
aS'G'
aS'C'
aa(lp196
S'C'
aS'G'
aS'C'
aS'F'
aS'C'
aS'G'
aS'F'
aS'C'
aS'G'
aS'C'
aS'F'
aS'C'
aS'G'
aS'C'
aS'C'
aS'G'
aS'C'
aS'F'
aS'C'
aS'G'
aS'F'
aS'C'
aS'G'
aS'C'
aS'F'
aS'C'
aS'G'
aS'C'
aS'G'
aS'C'
aS'G'
aS'C'
aS'G'
aS'C'
aS'G'
aS'C'
aa(lp197
S'F'
aS'G'
aS'C'
aS'F'
aS'C'
aS'F'
aS'G'
aS'F'
aS'G'
aS'C'
aS'F'
aS'C'
aS'F'
aS'G'
aS'C'
aS'F'
aS'G'
aS'C'
aS'F'
aS'C'
aS'F'
aS'C'
aS'F'
aS'C'
aS'F'
aS'C'
aS'F'
aS'G'
aS'F'
aS'G'
aS'C'
aS'F'
aS'C'
aS'F'
aS'C'
aS'F'
aS'G'
aS'F'
aS'G'
aS'C'
aS'F'
aS'C'
aS'F'
aS'G'
aS'F'
aS'G'
aS'C'
aS'F'
aS'C'
aS'F'
aS'G'
aS'C'
aa(lp198
S'C'
ag28
aS'G'
aS'C'
ag28
aS'C'
ag28
aS'G'
ag28
aS'G'
aS'C'
ag28
aS'C'
ag28
aS'G'
aS'C'
ag28
aS'G'
aS'C'
aS'C'
ag28
aS'C'
ag28
aS'G'
ag28
aS'G'
aS'C'
ag28
aS'C'
ag28
aS'C'
ag28
aS'G'
ag28
aS'G'
aS'C'
ag28
aS'C'
ag28
aS'G'
ag28
aS'G'
aS'C'
ag28
aS'C'
ag28
aS'G'
aS'C'
ag28
aS'G'
aS'C'
ag28
aS'C'
ag28
aS'C'
ag28
aS'C'
ag28
aS'C'
ag28
aS'G'
ag28
aS'G'
aS'C'
ag28
aS'C'
ag28
aS'C'
ag28
aS'G'
ag28
aS'G'
aS'C'
ag28
aS'C'
ag28
aS'G'
ag28
aS'G'
aS'C'
ag28
aS'C'
ag28
aS'G'
aS'C'
ag28
aS'G'
aS'C'
ag28
aS'C'
ag28
aS'C'
ag28
aS'C'
ag28
aS'G'
ag28
aS'G'
aS'C'
ag28
aS'C'
ag28
aS'C'
ag28
aS'C'
ag28
aS'C'
ag12
aS'G'
ag28
aS'G'
aS'C'
ag28
aS'C'
ag28
aS'G'
ag28
aS'G'
aS'C'
ag28
aS'C'
ag28
aS'G'
aS'C'
aS'C'
ag28
aS'G'
aS'C'
ag28
aS'C'
ag28
aS'C'
ag28
aS'C'
ag28
aS'C'
ag28
aS'C'
ag28
aS'G'
ag28
aS'G'
aS'C'
ag28
aS'C'
ag28
aS'C'
ag28
aS'C'
ag28
aS'C'
ag28
aS'C'
ag12
aS'G'
ag28
aS'G'
aS'C'
ag28
aS'C'
ag28
aS'G'
ag28
aS'G'
aS'C'
ag28
aS'C'
ag28
aS'G'
aS'C'
aa(lp199
S'C'
aS'C'
aS'C'
aS'C'
ag13
aS'C'
aS'C'
ag13
aS'C'
ag13
aS'C'
ag13
aS'C'
aS'C'
aS'C'
ag13
aS'C'
aS'C'
ag13
aS'C'
ag13
aS'C'
aS'C'
ag13
aS'C'
ag13
aS'C'
ag13
aS'C'
aS'C'
aS'C'
aS'C'
aS'C'
ag13
aS'C'
ag13
aS'C'
aS'C'
aS'C'
ag171
aS'C'
ag171
aS'C'
ag171
ag171
aS'C'
ag171
aS'C'
ag171
aS'C'
ag171
aS'C'
aa(lp200
S'C'
aS'F'
aS'C'
aS'F'
aS'C'
aS'F'
aS'C'
aS'C'
ag12
aS'F'
aS'G'
aS'C'
ag12
aS'F'
aS'G'
aS'C'
ag12
aS'G'
aS'C'
aS'F'
aS'C'
aS'F'
aS'C'
aS'F'
aS'C'
aS'F'
aS'C'
ag12
aS'F'
aS'G'
aS'C'
ag12
aS'F'
aS'G'
aS'C'
ag12
aS'G'
aS'C'
aS'F'
aS'F'
aS'G'
ag16
aS'G'
aS'C'
aS'F'
aS'C'
aS'F'
aS'C'
aS'F'
aS'C'
aS'F'
aS'C'
ag12
aS'F'
aS'G'
aS'C'
ag12
aS'F'
aS'G'
aS'C'
ag12
aS'G'
aS'C'
ag12
aS'G'
aS'C'
ag12
aS'G'
aS'C'
ag12
aS'G'
aa(lp201
S'C'
aS'F'
aS'C'
aS'F'
aS'C'
aS'G'
aS'F'
aS'C'
aS'F'
aS'C'
aS'F'
aS'C'
aS'G'
aS'F'
aS'C'
aS'F'
aS'C'
aS'F'
aS'C'
aS'G'
aS'F'
aS'C'
aS'C'
aS'F'
aS'C'
aS'F'
aS'C'
aS'G'
aS'F'
aS'C'
aa(lp202
S'C'
ag46
aS'C'
aS'F'
aS'C'
ag46
aS'C'
aS'F'
aS'G'
aS'C'
ag46
ag6
aS'C'
ag46
ag6
aS'C'
ag46
ag6
aS'F'
aS'C'
ag46
ag6
aS'F'
aS'C'
ag46
ag6
aS'F'
aS'C'
ag46
ag6
aS'F'
aS'C'
ag46
ag6
aS'F'
aS'C'
ag46
ag6
aS'F'
aS'C'
ag46
aS'C'
aS'F'
aS'C'
aS'G'
aS'C'
ag46
ag6
aS'F'
aS'C'
aS'F'
aS'C'
aS'G'
aS'C'
ag46
ag6
aS'C'
ag46
ag6
aS'F'
aS'C'
ag46
ag6
aS'F'
aS'C'
ag46
ag6
aS'F'
aS'C'
ag46
ag6
aS'F'
aS'C'
ag46
ag6
aS'F'
aS'C'
ag46
ag6
aS'F'
aS'C'
ag46
ag6
aS'F'
aS'C'
ag46
ag6
aS'F'
aS'C'
ag46
ag6
aS'F'
aS'C'
ag46
ag6
aS'F'
aS'C'
ag46
ag6
aS'F'
aS'C'
ag46
ag6
aS'C'
aS'F'
aS'C'
aS'G'
aS'C'
ag46
ag6
aS'F'
aS'C'
aS'F'
aS'C'
aS'C'
ag46
ag6
aS'F'
aS'C'
aS'F'
aS'C'
aS'G'
aS'C'
ag46
ag6
aS'F'
aS'C'
aS'F'
aa(lp203
S'C'
ag57
aS'C'
ag57
aS'C'
aS'F'
ag21
aS'C'
ag57
aS'C'
ag57
aS'C'
aS'F'
ag21
aS'C'
ag57
aS'C'
ag57
aS'C'
aa(lp204
S'C'
aS'F'
aS'C'
aS'C'
aS'F'
aS'C'
aS'C'
aS'C'
aS'F'
aS'C'
aS'C'
aS'F'
aS'C'
aS'C'
aS'C'
aS'F'
aS'C'
aS'C'
aS'F'
aS'C'
aS'C'
aa(lp205
S'C'
ag46
ag3
aS'C'
ag46
ag3
aS'C'
ag46
ag3
aS'C'
ag46
ag3
aS'E'
ag13
aS'F'
ag13
aS'F'
aS'C'
ag46
ag3
aS'C'
aS'G9'
p206
aS'C'
ag46
ag3
aS'F'
aS'C'
ag46
ag3
aS'C'
ag206
aS'C'
ag46
ag3
aS'E'
ag13
aS'F'
ag6
aS'G'
aS'C'
ag206
aS'C'
ag46
ag3
aS'C'
ag206
aS'C'
ag46
ag3
aS'E'
ag13
aS'F'
ag6
aS'G'
ag13
aS'F'
ag6
aS'G'
ag13
aS'F'
ag6
aS'G'
aa(lp207
g6
aS'F'
ag6
aS'D'
aS'F'
aS'G'
aS'C'
ag6
aS'F'
aS'C'
ag6
aS'F'
aS'C'
ag6
aS'D'
aS'F'
aS'G'
ag6
aS'D'
aS'F'
aS'G'
aS'C'
ag6
aS'F'
aS'C'
ag6
aS'F'
aS'C'
ag6
aS'D'
aS'F'
aS'G'
ag6
aS'D'
aS'F'
aS'G'
aS'C'
ag6
aS'F'
aS'C'
ag6
aS'F'
aS'C'
ag6
aS'C'
ag6
aS'C'
aS'G'
aS'F'
aS'C'
ag6
aS'F'
aS'C'
ag6
aS'F'
aS'C'
ag6
aS'F'
aS'C'
ag6
aS'C'
ag6
aS'F'
aS'C'
ag6
aS'F'
aS'C'
ag6
aS'F'
aa(lp208
g21
aS'G'
ag21
aS'G'
ag21
ag13
ag29
ag13
ag21
ag13
ag29
ag13
aS'F'
ag21
aS'G'
ag21
aS'G'
ag21
ag13
ag29
ag13
ag21
ag13
ag29
ag13
aS'F'
ag21
aS'G'
ag21
aS'G'
ag21
ag13
ag29
ag13
ag21
ag13
ag29
ag13
aS'F'
ag21
aS'G'
ag21
aS'G'
ag21
ag13
ag29
ag13
ag21
ag13
ag29
ag13
aS'F'
ag21
aS'G'
ag21
aS'G'
ag21
ag13
ag29
ag13
ag21
ag13
ag29
ag13
aS'F'
ag21
aS'G'
ag21
aS'G'
ag21
aS'G'
ag21
aS'G'
ag21
aS'G'
ag21
aS'G'
ag21
aS'G'
ag21
aS'G'
ag21
aS'G'
ag21
aS'G'
ag21
aS'G'
ag21
aS'G'
ag21
aS'G'
ag21
aS'G'
aa(lp209
g8
ag21
aS'F'
ag21
ag8
ag17
aS'C'
ag8
ag21
aS'F'
ag21
ag8
ag17
aS'C'
ag8
aS'C'
aS'F'
ag21
ag8
ag17
aS'C'
ag8
ag21
aS'F'
ag21
ag8
ag17
aS'C'
ag8
aS'C'
aa(lp210
g47
ag13
ag21
ag47
ag13
ag21
aS'Am7'
p211
ag21
ag89
ag115
ag21
ag89
ag47
ag13
ag21
ag211
ag47
ag13
ag21
ag211
ag21
ag89
ag115
ag21
ag89
aS'C'
ag6
ag22
ag6
ag22
ag6
ag22
ag6
ag22
ag12
ag6
ag22
aS'C'
aS'C'
ag21
ag46
aS'A'
ag12
aS'A'
ag12
aS'B-'
p212
ag28
aS'Gm'
p213
aS'F'
aS'E'
aS'A'
ag21
ag46
aS'A'
ag12
aS'A'
ag12
aS'Am/C'
p214
ag212
ag28
ag213
aS'F'
aS'E'
aS'A'
ag21
ag46
aS'A'
ag12
aS'A'
ag12
ag214
ag212
ag28
ag213
aS'F'
aS'E'
ag6
aa(lp215
S'C'
ag3
ag54
aS'C'
ag3
ag54
aS'C'
ag3
ag54
aS'C'
ag178
ag5
ag54
aS'C'
ag3
ag54
aS'C'
ag3
ag54
aS'C'
ag3
ag54
aS'C'
ag178
ag5
ag54
aS'C'
ag3
ag54
aS'C'
ag3
ag54
aS'C'
ag3
ag54
aS'C'
ag178
ag5
ag54
aS'C'
ag3
ag54
aS'C'
ag3
ag54
aS'C'
ag3
ag54
aS'C'
ag178
ag5
ag54
aa(lp216
S'C'
aS'G'
ag6
aS'C'
aS'G'
ag6
aS'C'
ag6
aS'C'
aS'C'
aS'G'
ag6
aS'C'
aa(lp217
g21
ag29
ag21
ag29
ag21
ag29
ag21
ag29
ag21
ag29
ag21
ag29
aS'F'
ag21
ag21
ag29
ag21
ag29
ag21
ag29
aS'F'
ag21
aa(lp218
S'C'
ag6
aS'G'
aS'C'
ag6
ag8
aS'C'
aS'F'
ag6
aS'G'
aS'C'
aS'G'
aS'F'
aS'C'
ag8
aS'C'
aS'F'
ag6
aS'G'
aS'C'
aS'G'
aS'F'
aS'C'
ag6
ag8
aS'C'
aS'F'
aS'C'
ag6
aS'G'
aS'C'
ag6
aS'G'
aS'F'
aS'C'
ag6
aS'G'
aS'C'
ag6
aS'G'
aS'F'
aa(lp219
S'C'
ag6
aS'F'
ag26
aS'C'
ag6
aS'F'
ag26
aS'G'
aS'C'
ag6
aS'F'
ag26
ag12
aS'C'
ag6
aS'F'
ag26
aS'G'
aS'F'
aS'G'
aS'C'
aS'F'
aS'G'
aS'F'
aS'G'
aS'C'
aS'F'
aS'G'
aS'C'
aS'G'
aS'C'
ag6
aS'F'
ag26
ag12
aS'C'
ag6
aS'F'
ag26
aS'G'
aS'C'
ag6
aS'F'
ag26
ag12
aS'C'
ag6
aS'F'
ag26
aS'G'
aS'F'
aS'G'
aS'C'
aS'F'
aS'G'
aS'F'
aS'G'
aS'C'
aS'F'
aS'G'
aS'C'
aS'F'
aS'G'
aS'C'
aS'G'
aS'C'
ag6
aS'F'
ag26
ag12
aS'C'
ag6
aS'F'
ag26
aS'G'
aS'C'
ag6
aS'F'
ag26
ag12
aS'C'
ag6
aS'F'
ag26
aS'G'
aS'F'
aS'G'
aS'C'
aS'F'
aS'G'
aS'F'
aS'G'
aS'C'
aS'F'
aS'G'
aS'F'
aS'G'
ag6
aS'F'
aS'G'
aS'C'
aS'G'
aS'C'
aa(lp220
S'G'
aS'F'
aS'G'
aS'F'
aS'G'
aS'F'
ag149
aS'F'
ag149
aS'F'
aS'G'
aS'F'
aS'G'
aS'F'
aS'G'
aS'F'
ag149
aS'F'
ag149
aS'G'
aS'F'
aS'G'
aS'F'
aS'G'
aS'F'
ag149
aS'F'
ag149
aS'G'
aS'F'
aS'G'
aS'F'
aS'G'
aS'F'
ag149
aS'F'
ag149
ag149
aS'F'
ag149
aS'F'
ag149
aS'F'
ag149
aS'F'
ag149
aS'F'
ag149
aS'F'
ag149
aS'F'
ag149
aS'F'
aa(lp221
S'C'
aS'F'
aS'C'
aS'C'
aS'G'
aS'C'
aS'C'
aS'F'
aS'C'
aS'G'
aS'C'
aS'G'
aS'F'
aS'C'
aS'G'
aS'F'
aS'C'
aS'G'
aS'C'
aS'G'
aS'C'
aS'G'
aS'F'
aS'C'
aS'G'
aS'F'
aS'C'
aS'G'
aS'C'
aS'G'
aS'C'
aS'F'
aS'C'
aS'C'
aS'G'
aS'C'
aS'C'
aS'F'
aS'C'
aS'C'
aS'G'
aS'C'
aS'G'
aS'F'
aS'C'
aS'G'
aS'F'
aS'C'
aS'G'
aS'C'
aS'G'
aS'C'
aS'G'
aS'F'
aS'C'
aS'G'
aS'F'
aS'C'
aS'G'
aS'C'
aS'G'
aS'C'
aS'G'
aS'C'
aS'G'
aS'C'
aS'G'
aS'C'
aS'G'
aS'C'
aS'G'
aa(lp222
S'C'
aS'F'
aS'C'
aS'F'
aS'C'
aS'G'
aS'C'
aS'G'
aS'C'
aS'G'
aS'C'
ag13
aS'C'
ag13
aS'C'
aS'F'
aS'C'
aS'F'
aS'C'
aS'G'
aS'C'
aS'G'
aS'C'
aS'G'
aS'C'
ag13
aS'C'
ag13
aS'C'
ag13
aS'C'
ag13
aS'C'
aS'C'
ag13
aS'C'
aS'F'
ag29
aS'F'
aS'C'
ag13
aS'C'
ag13
aS'C'
ag13
aS'C'
aa(lp223
g149
aS'F'
aS'C'
aS'G'
aS'C'
aS'G'
aS'C'
ag8
aS'C'
aS'F'
aS'G'
aS'C'
aS'F'
aS'C'
aS'G'
aS'C'
aS'G'
aS'C'
ag8
aS'C'
aS'F'
aS'G'
aS'C'
aS'F'
aS'C'
aS'G'
aS'C'
aS'G'
aS'C'
ag8
aS'C'
aS'F'
aS'G'
aS'C'
aS'F'
aS'C'
aS'G'
aS'C'
aS'G'
aS'C'
ag8
aS'C'
aS'F'
aS'G'
aS'C'
aS'F'
aS'C'
aS'G'
aS'C'
aS'G'
aa(lp224
S'C'
aS'G'
aS'C'
ag17
aS'C'
ag8
aS'C'
ag17
aS'C'
ag8
aS'C'
ag17
aS'C'
ag8
aS'C'
ag17
aS'C'
ag8
aS'C'
ag17
aS'C'
ag8
aS'C'
aa(lp225
g22
ag21
ag22
ag21
ag22
ag21
ag22
ag21
ag22
ag21
ag13
ag22
ag21
ag13
ag22
ag21
ag13
ag22
ag21
ag13
ag22
aS'C'
aS'G'
aS'C'
aS'G'
aS'C'
aS'G'
aS'C'
aS'G'
ag22
ag21
ag22
ag21
ag22
ag21
ag22
ag21
ag22
ag21
ag13
ag22
ag21
ag13
ag22
ag21
ag13
ag22
ag21
ag13
ag22
aS'C'
aS'G'
aS'C'
aS'G'
aS'C'
aS'G'
aS'C'
aS'G'
ag22
ag21
ag22
ag21
ag22
ag21
ag13
ag22
ag22
ag21
ag13
ag22
ag21
ag13
ag22
ag21
ag13
ag22
ag21
ag13
ag22
aS'C'
aS'G'
aS'C'
aS'G'
aS'C'
aS'G'
aS'C'
aS'G'
aS'F'
aa(lp226
S'C'
aS'F'
aS'C'
aS'F'
aS'C'
aS'G'
aS'F'
aS'C'
aS'F'
aS'C'
aS'F'
aS'C'
aS'G'
aS'F'
aS'C'
aS'F'
aS'C'
aS'F'
aS'C'
aS'G'
aS'F'
aS'C'
aS'F'
aS'C'
aS'G'
aS'C'
aS'C'
aS'F'
aS'C'
aS'F'
aS'C'
aS'G'
aS'F'
aS'C'
aS'F'
aS'C'
aS'F'
aS'C'
aS'G'
aS'F'
aS'C'
aS'F'
aS'C'
aS'G'
aS'C'
aa(lp227
S'C'
aS'F'
aS'C'
aS'F'
aS'C'
aS'G'
aS'C'
aS'F'
aS'C'
aS'F'
aS'C'
aS'F'
aS'C'
aS'F'
aS'C'
aS'F'
aS'C'
aS'F'
aS'C'
aS'F'
aS'C'
aS'F'
aS'C'
aS'F'
aS'C'
aS'F'
aS'C'
aS'C'
aS'F'
aS'C'
aS'F'
aS'C'
aS'G'
aS'C'
aS'F'
aS'C'
aS'F'
aS'C'
aS'F'
aS'C'
aS'F'
aS'C'
aS'F'
aS'C'
aS'F'
aS'C'
aS'F'
aS'C'
aS'F'
aS'C'
aS'F'
aS'C'
aS'F'
aS'C'
aS'C'
aS'F'
aS'C'
aS'F'
aS'C'
aS'G'
aS'C'
aS'F'
aS'C'
aS'F'
aS'C'
aS'F'
aS'C'
aS'F'
aS'C'
aS'F'
aS'C'
aS'F'
aS'C'
aS'F'
aS'C'
aS'F'
aS'C'
aS'F'
aS'C'
aS'F'
aS'C'
aS'F'
aS'C'
aS'F'
aS'C'
aS'F'
aS'C'
aS'F'
aS'C'
aS'F'
aS'C'
aS'F'
aS'C'
aS'F'
aS'C'
aS'F'
aS'C'
aS'F'
aa(lp228
S'C'
aS'G'
aS'F'
ag12
aS'C'
aS'G'
aS'F'
ag12
aS'C'
aS'G'
aS'F'
aS'C'
aS'G'
aS'F'
aS'C'
aS'G'
aS'F'
ag12
aS'C'
aS'G'
aS'F'
ag12
aS'C'
aS'G'
aS'F'
aS'C'
aS'G'
aS'F'
aS'C'
aS'G'
aS'C'
aS'G'
aS'F'
ag12
aS'C'
aS'G'
aS'F'
ag12
aS'C'
aS'G'
aS'F'
aS'C'
aS'G'
aS'F'
aS'C'
aS'G'
aS'F'
aS'C'
aa(lp229
S'C'
ag17
aS'C'
ag8
ag17
aS'C'
ag17
aS'C'
ag8
ag17
aS'C'
ag17
aS'C'
ag8
ag17
aS'C'
ag17
aS'C'
ag8
ag17
aS'C'
aS'C'
ag17
aS'C'
ag8
ag17
aS'C'
ag17
aS'C'
ag8
ag17
aS'C'
ag17
aS'C'
ag8
ag17
aS'C'
ag17
aS'C'
ag8
ag17
aS'C'
aa(lp230
S'C'
aS'C'
aS'C'
aS'F'
aS'F'
aS'C'
aS'C'
aS'G'
aS'C'
aS'C'
aS'C'
aS'C'
aS'F'
aS'F'
aS'C'
aS'C'
aS'G'
aS'C'
aS'C'
aS'C'
aS'C'
aS'F'
aS'F'
aS'C'
aS'C'
aS'G'
aS'C'
aS'C'
aS'C'
aS'F'
aS'F'
aS'C'
aS'C'
aS'G'
aS'C'
aS'C'
aS'C'
aS'C'
aS'F'
aS'F'
aS'C'
aS'C'
aS'G'
aS'C'
aS'C'
aS'C'
aS'F'
aS'F'
aS'C'
aS'C'
aS'G'
aS'C'
aS'F'
aS'C'
aa(lp231
g21
aS'F'
ag29
ag22
ag21
aS'F'
ag29
ag22
ag21
aS'F'
ag29
ag22
ag21
aS'F'
ag29
ag22
ag21
aS'F'
ag29
ag22
ag21
aS'F'
ag29
ag22
ag21
aS'F'
ag29
ag22
ag21
aS'F'
ag29
ag22
ag21
aS'F'
ag29
ag22
ag21
aS'F'
ag29
ag22
ag21
aS'F'
ag29
ag22
ag21
aS'F'
ag29
ag22
ag21
aS'F'
ag29
ag22
ag21
aS'F'
ag29
ag22
ag21
aS'F'
ag29
ag22
ag21
aS'F'
ag29
ag22
ag21
aS'F'
ag29
ag22
ag21
aS'F'
ag29
ag22
ag21
aS'F'
ag29
ag22
ag21
aS'F'
ag29
ag22
ag21
aS'F'
ag29
ag22
ag21
aS'F'
ag29
ag22
ag21
aS'F'
ag29
ag22
ag21
aS'F'
ag29
ag22
ag21
aS'F'
ag29
ag22
ag21
aS'F'
ag29
ag22
ag21
aS'F'
ag29
ag22
ag21
aS'F'
ag29
ag22
ag21
aS'F'
ag29
ag22
ag21
aS'F'
ag29
ag22
ag21
aS'F'
ag29
ag22
ag21
aS'F'
ag29
ag22
ag21
aS'F'
ag29
ag22
ag21
aS'F'
ag29
ag22
ag21
aS'F'
ag29
ag22
ag21
aS'F'
ag29
ag22
ag21
aS'F'
ag29
ag22
ag21
aS'F'
ag29
ag22
ag21
aS'F'
ag29
ag22
ag21
aS'F'
ag29
ag22
ag21
aS'F'
ag29
ag22
ag21
aS'F'
ag29
ag22
ag21
aS'F'
ag29
ag22
ag21
aS'F'
ag29
ag22
ag21
aS'F'
ag29
ag22
ag21
aS'F'
ag29
ag22
ag21
aa(lp232
S'A-7'
p233
ag21
ag46
aS'CmM7/B'
p234
ag28
ag233
ag13
ag21
ag46
ag234
ag28
ag233
ag13
ag21
ag29
aS'F'
ag233
ag21
ag29
ag13
aS'F'
ag29
aS'F'
ag233
ag21
ag29
aS'F'
ag233
ag21
ag46
ag234
ag28
ag233
ag13
ag21
aS'F'
ag71
ag71
aS'F'
ag71
aS'F'
ag29
aS'B-/D'
p235
ag21
ag29
ag235
ag22
ag21
ag29
ag235
ag21
ag29
ag235
ag22
ag71
aS'F'
ag71
aS'F'
aS'F'
ag29
ag235
ag21
ag29
ag235
ag22
ag21
ag29
ag235
ag21
ag29
ag235
ag22
aS'F'
ag29
ag235
ag21
ag29
ag235
ag22
ag29
ag235
ag21
ag29
ag235
ag22
aS'F'
ag71
aS'F'
ag29
ag235
ag21
ag29
ag235
ag22
ag29
ag235
ag21
ag29
ag235
ag22
ag21
ag235
aS'F'
ag21
ag13
ag21
ag13
ag22
ag21
ag13
ag22
ag21
ag13
ag22
ag21
ag13
ag22
ag21
ag13
ag22
ag21
ag13
ag22
ag21
ag13
ag22
ag21
ag13
ag22
ag22
ag21
aa(lp236
S'C'
ag6
aS'F'
aS'G'
aS'C'
ag6
aS'F'
aS'G'
aS'C'
ag6
aS'F'
aS'G'
aS'C'
ag6
aS'F'
aS'G'
aS'C'
ag6
aS'F'
aS'G'
aS'C'
ag6
aS'F'
aS'G'
aS'C'
aS'C'
ag6
aS'F'
aS'G'
aS'C'
aa(lp237
S'C'
ag57
ag115
aS'F'
aS'A'
aS'F'
aS'C'
aS'G'
ag6
ag76
aS'F'
aS'G'
aS'C'
ag6
aS'F'
aS'G'
aS'F'
aS'C'
ag57
ag115
aS'F'
aS'A'
aS'F'
aS'C'
aS'G'
ag6
ag76
aS'F'
aS'G'
aS'C'
ag6
aS'F'
aS'G'
aS'F'
aS'C'
ag57
ag115
aS'F'
aS'A'
aS'F'
aS'C'
aS'G'
ag6
ag76
aS'F'
aS'G'
aS'C'
ag6
aS'F'
aS'G'
aS'F'
aS'C'
ag57
ag115
aS'F'
aS'A'
aS'F'
aS'C'
aS'F'
aS'C'
aS'F'
aS'G'
aS'F'
aa(lp238
S'C'
aS'G'
aS'F'
aS'C'
aS'G'
aS'F'
aS'C'
aS'G'
aS'F'
aS'C'
aS'G'
aS'F'
aS'C'
aS'G'
aS'F'
aS'C'
aS'G'
aS'F'
aS'C'
aS'G'
aS'F'
aS'C'
aS'G'
aS'F'
aS'C'
aS'C'
aS'G'
aS'F'
aS'C'
aS'G'
aS'F'
aS'C'
aS'G'
aS'F'
aS'C'
aS'G'
aS'F'
aS'F'
aS'C'
aS'G'
aS'F'
aS'C'
aS'G'
aS'F'
aS'C'
aS'G'
aS'F'
aS'C'
aS'G'
aS'F'
aS'C'
aS'C'
aS'C'
aS'C'
aa(lp239
S'C'
aS'C'
aS'C'
aS'F'
aS'C'
aS'F'
aS'C'
aS'C'
aS'C'
aS'C'
aS'F'
aS'C'
aS'F'
aS'C'
aS'C'
aS'C'
aS'C'
aS'F'
aS'C'
aS'F'
aS'C'
aa(lp240
S'C'
aS'F'
aS'G'
ag13
aS'F'
aS'G'
ag13
aS'F'
aS'G'
ag13
aS'F'
aS'G'
aS'C'
aS'F'
aS'G'
ag13
aS'F'
aS'G'
ag13
aS'F'
aS'G'
ag13
aS'F'
aS'G'
aS'C'
aS'F'
aS'C'
aS'G'
ag13
aS'F'
aS'G'
ag13
aS'F'
aS'G'
ag13
aS'F'
aS'G'
ag13
aS'F'
aS'G'
ag13
aS'F'
aS'G'
aa(lp241
g21
aS'G'
aS'A-'
p242
aS'G'
aS'G-'
p243
aS'F'
aS'G'
ag21
aS'G'
ag242
aS'G'
ag243
aS'F'
aS'G'
ag21
ag243
aS'F'
aS'G'
ag21
aS'G'
ag242
aS'G'
ag243
aS'F'
aS'G'
ag21
aa(lp244
S'C'
aS'F'
aS'G'
aS'F'
aS'C'
aS'F'
aS'G'
aS'F'
aS'G'
aS'F'
aS'C'
ag16
ag6
ag16
aS'F'
aS'G'
aS'C'
aS'F'
aS'G'
aS'F'
aS'C'
aS'F'
aS'G'
aS'F'
aS'G'
aS'F'
aS'C'
ag16
ag6
ag16
aS'F'
aS'G'
ag6
ag16
aS'F'
aS'G'
ag6
ag16
aS'F'
aS'G'
aS'C'
aS'F'
aS'C'
aS'G'
aS'C'
aS'F'
aS'G'
aS'F'
aS'C'
aS'F'
aS'G'
aS'F'
aS'C'
aS'F'
aS'G'
aS'F'
aS'C'
aS'F'
aS'G'
aS'F'
aS'C'
aS'F'
aS'G'
aS'F'
aS'C'
aS'F'
aS'G'
aS'F'
aS'C'
aS'F'
aS'G'
aS'F'
aS'C'
aS'F'
aS'G'
aS'F'
aS'C'
aa(lp245
S'C'
ag13
aS'F'
aS'C'
ag13
aS'F'
aS'C'
aS'G'
ag13
aS'C'
aS'G'
ag13
aS'C'
ag13
aS'F'
aS'C'
ag13
aS'F'
aS'C'
aS'G'
ag13
aS'C'
aS'G'
ag13
aS'C'
aS'C'
aS'G'
ag13
aS'C'
aS'G'
ag13
aS'G'
ag13
aS'C'
aS'G'
ag13
aS'C'
ag21
ag29
ag47
ag22
ag13
ag29
ag21
ag29
ag47
ag21
ag29
ag47
ag21
ag29
ag47
ag22
ag13
ag29
ag21
ag29
ag47
ag13
ag29
ag21
ag29
ag47
ag21
ag29
ag47
ag21
ag29
ag47
ag22
ag13
ag21
aa(lp246
S'C'
ag13
aS'F'
aS'C'
ag13
aS'F'
aS'C'
ag13
aS'F'
aS'C'
ag13
aS'F'
aS'C'
aS'G'
aS'C'
aS'G'
aS'C'
ag13
aS'F'
aS'C'
ag13
aS'F'
aS'C'
ag13
aS'F'
aS'C'
aS'G'
aS'C'
aS'G'
aS'C'
ag13
aS'F'
aS'C'
ag13
aS'F'
aS'C'
ag13
aS'F'
aS'C'
ag13
aS'F'
aS'G'
aS'C'
aS'G'
aS'C'
aS'G'
aS'C'
aS'G'
aS'C'
ag13
aS'F'
aS'C'
ag13
aS'F'
aS'C'
ag13
aS'F'
aS'C'
ag13
aS'F'
aS'C'
aS'G'
aS'C'
aS'G'
aS'C'
aS'C'
ag13
aS'F'
aS'C'
ag13
aS'F'
aS'C'
ag13
aS'F'
aS'C'
ag13
aS'F'
aS'C'
ag13
aS'F'
aS'C'
ag13
aS'F'
aS'C'
ag13
aS'F'
aS'C'
ag13
aS'F'
aS'C'
aa(lp247
g149
ag149
ag13
ag149
ag13
ag149
ag13
aS'F'
ag22
ag29
ag13
aS'F'
ag149
ag149
ag13
ag149
ag13
ag149
ag13
aS'F'
ag22
ag29
ag13
aS'F'
ag149
ag6
aS'F'
ag6
aS'F'
ag50
aS'G'
ag149
ag149
ag13
ag149
ag13
ag149
ag13
aS'F'
ag22
ag29
ag13
aS'F'
ag149
aa(lp248
S'C'
ag13
aS'C'
aS'C'
ag13
aS'F'
aS'C'
ag13
aS'C'
ag13
aS'C'
ag13
aS'F'
aS'G'
ag6
aS'C'
aS'G'
ag6
aS'C'
aS'F'
ag13
aS'F'
aS'C'
ag13
aS'C'
aS'C'
ag13
aS'F'
aS'C'
ag13
aS'C'
aS'C'
ag13
aS'F'
aS'G'
ag6
aS'C'
aS'G'
ag6
aS'C'
aS'F'
ag13
aS'F'
aS'C'
ag13
aS'C'
ag13
aS'C'
ag13
aS'F'
aS'C'
ag13
aS'C'
aS'C'
ag13
aS'F'
aS'G'
ag6
aS'C'
aS'G'
ag6
aS'C'
aS'F'
ag13
aS'F'
aS'C'
ag13
aS'C'
ag13
aS'C'
ag13
aS'F'
aS'C'
ag13
aS'C'
ag13
aS'C'
ag13
aS'F'
aS'G'
ag6
aS'C'
aS'F'
aS'G'
ag6
aS'C'
aS'F'
ag13
aS'F'
aS'C'
ag13
aS'C'
ag13
aS'C'
ag13
aS'F'
aS'C'
ag13
aS'C'
aS'C'
ag13
aS'F'
aS'G'
ag6
aS'C'
aS'G'
ag6
aS'C'
aS'F'
ag13
aS'F'
aS'C'
ag13
aS'C'
ag13
aS'C'
ag13
aS'F'
aS'C'
ag13
aS'C'
aS'C'
ag13
aS'F'
aS'G'
ag6
aS'C'
aS'F'
aS'G'
ag6
aS'C'
aS'F'
aS'G'
ag13
aS'F'
aS'C'
ag13
aS'C'
aS'C'
ag13
aS'F'
aS'C'
ag13
aS'C'
ag13
aS'C'
ag13
aS'F'
aS'G'
ag6
aS'C'
aS'G'
ag6
aS'C'
aS'F'
ag13
aS'F'
aS'C'
aa(lp249
S'C'
ag46
ag6
ag28
ag19
aS'G'
aS'C'
ag46
ag6
ag28
ag19
aS'G'
ag6
ag53
aS'A'
ag5
ag54
aS'C'
aS'C'
ag46
ag6
ag28
ag19
aS'G'
aS'C'
ag46
ag28
ag19
aS'G'
ag6
ag53
aS'A'
ag5
ag54
aS'C'
aS'F'
ag16
ag12
ag46
aS'C'
aS'F'
ag16
ag12
ag46
ag46
ag46
ag6
ag53
aS'A'
ag5
ag54
aS'C'
aS'C'
ag46
ag6
ag28
ag19
aS'G'
aS'C'
ag46
ag6
ag28
ag19
aS'G'
ag6
ag53
aS'A'
ag5
ag54
aS'C'
aa(lp250
S'G'
aS'F'
aS'C'
aS'F'
aS'C'
aS'G'
aS'C'
aS'F'
aS'C'
aS'F'
aS'C'
aS'F'
aS'C'
aS'D'
aS'G'
aS'F'
aS'C'
aS'F'
aS'C'
aS'G'
aS'G'
aS'F'
aS'C'
aS'F'
aS'C'
aS'G'
aS'C'
aS'F'
aS'C'
aS'F'
aS'C'
aS'F'
aS'C'
aS'D'
aS'G'
aS'F'
aS'C'
aS'F'
aS'C'
aS'G'
aS'C'
aS'F'
aS'C'
aS'F'
aS'C'
aa(lp251
S'C'
aS'F'
aS'G'
aS'C'
aS'F'
aS'G'
aS'C'
aS'C'
aS'F'
aS'G'
aS'C'
aS'F'
aS'G'
aS'C'
aa(lp252
S'C'
ag6
aS'G'
aS'C'
ag6
aS'G'
aS'F'
aS'C'
aS'G'
aS'C'
ag6
aS'G'
aS'C'
ag6
aS'G'
aS'F'
aS'C'
aS'G'
aS'F'
aS'C'
ag6
ag16
ag6
ag8
aS'C'
ag6
aS'G'
aS'C'
ag6
aS'G'
aS'F'
aS'C'
aS'G'
aS'C'
ag6
ag16
ag6
ag8
aS'C'
ag6
aS'G'
aS'C'
ag16
ag6
aS'C'
ag6
aS'G'
aS'C'
ag6
aS'G'
aS'F'
aS'C'
aS'G'
aS'C'
ag6
ag16
ag6
ag8
ag6
ag16
ag6
ag8
ag6
ag16
ag6
ag8
ag6
ag16
ag6
ag8
ag6
ag16
ag6
ag8
ag6
ag16
ag6
ag8
ag6
ag16
ag6
ag8
ag6
ag16
ag6
ag8
aS'C'
aa(lp253
S'C'
aS'E'
aS'F'
aS'D'
aS'C'
aS'E'
aS'F'
aS'D'
aS'C'
ag6
aS'C'
ag6
aS'C'
aS'D'
aS'C'
aS'A'
aS'C'
aS'E'
aS'F'
aS'D'
aS'C'
aS'E'
aS'F'
aS'D'
aS'C'
ag6
aS'C'
ag6
aS'C'
aS'D'
aS'C'
aS'C'
aS'G'
aS'F'
aS'C'
aS'G'
aS'F'
aS'C'
aS'G'
aS'F'
aS'C'
ag13
aS'G'
aS'C'
aS'E'
aS'F'
aS'D'
aS'C'
aS'E'
aS'F'
aS'D'
aS'C'
ag6
aS'C'
ag6
aS'C'
aS'D'
aS'C'
aa(lp254
S'CmM9'
p255
ag13
ag255
ag6
aS'F'
aS'C'
aS'F'
aS'C'
aS'F'
aS'C'
aS'C'
aS'G'
ag255
ag13
ag255
ag6
aS'F'
aS'C'
aS'F'
aS'C'
aS'F'
aS'C'
aS'C'
aS'G'
ag255
ag13
ag255
ag6
aS'F'
aS'C'
aS'F'
aS'C'
aS'F'
aS'C'
aS'C'
aS'G'
ag255
ag13
ag255
ag6
aS'F'
aS'C'
aS'F'
aS'C'
aS'F'
aS'C'
ag6
aS'C'
aS'G'
ag255
ag13
ag255
ag6
aS'F'
aS'C'
aS'F'
aS'C'
aS'F'
aS'C'
aS'C'
aS'G'
ag255
aa(lp256
S'C'
ag6
aS'F'
aS'C'
ag6
aS'F'
aS'G'
aS'C'
ag6
aS'F'
aS'C'
ag12
aS'G'
aS'F'
ag6
aS'G'
aS'C'
ag6
aS'G'
aS'C'
aS'C'
ag6
aS'F'
aS'C'
ag6
aS'F'
aS'G'
aS'C'
ag6
aS'F'
aS'C'
ag12
aS'G'
aS'F'
ag6
aS'G'
aS'C'
ag6
aS'G'
aS'G'
aS'C'
ag6
aS'F'
aS'C'
ag6
aS'F'
aS'G'
aS'C'
ag6
aS'F'
aS'C'
ag12
aS'G'
aS'F'
ag6
aS'G'
aS'C'
ag6
aS'G'
aS'C'
ag6
aS'F'
aS'C'
ag6
aS'F'
aS'G'
aS'C'
ag6
aS'F'
aS'C'
ag12
aS'G'
aS'F'
ag6
aS'G'
aS'C'
ag6
aS'G'
aS'C'
aS'C'
ag6
aS'F'
aS'C'
ag6
aS'F'
aS'G'
aS'C'
ag6
aS'F'
aS'C'
ag12
aS'G'
aS'F'
ag6
aS'G'
aS'C'
ag6
aS'G'
aS'C'
aa(lp257
S'C'
aS'F'
aS'G'
aS'C'
aS'F'
aS'C'
aS'F'
aS'G'
aS'C'
aS'F'
aS'C'
aS'F'
aS'G'
aS'C'
aS'F'
aS'G'
aS'C'
aS'F'
aS'G'
aS'C'
aS'C'
aS'F'
aS'C'
aS'F'
aS'C'
aS'F'
aS'G'
aS'C'
aS'F'
aS'C'
aS'F'
aS'G'
aS'C'
aS'F'
aS'C'
aS'F'
aS'G'
aS'C'
aS'F'
aS'G'
aS'C'
aS'F'
aS'G'
aS'C'
aS'F'
aS'C'
aS'F'
aS'C'
aS'F'
aS'C'
aS'F'
aS'C'
aS'F'
aS'F'
aS'C'
aS'F'
aS'F'
aS'C'
aS'F'
aS'C'
aS'G'
aS'C'
aS'F'
aS'G'
aS'C'
aS'F'
aS'G'
aS'C'
aS'F'
aS'G'
aS'C'
aS'F'
aS'C'
aS'F'
aS'G'
aS'C'
aS'F'
aS'G'
aS'C'
aS'F'
aS'G'
aS'C'
aS'F'
aS'C'
aa(lp258
S'C'
ag16
aS'F'
aS'C'
ag16
aS'F'
aS'C'
ag16
aS'F'
aS'C'
ag16
aS'F'
aS'C'
aS'G'
aS'F'
aS'C'
aS'G'
aS'C'
aS'G'
aS'F'
aS'C'
ag16
aS'F'
aS'C'
ag16
aS'F'
aS'C'
ag16
aS'F'
aS'C'
ag16
aS'F'
aS'C'
aS'G'
aS'F'
aS'C'
aS'G'
aS'F'
aS'C'
aS'G'
aS'F'
aS'C'
ag16
aS'F'
aS'C'
ag16
aS'F'
aS'C'
ag16
aS'F'
aS'C'
ag16
aS'F'
aS'C'
aS'G'
aS'F'
aS'C'
aS'G'
aS'F'
aS'C'
aS'G'
aS'F'
aS'C'
ag16
aS'F'
aS'C'
ag16
aS'F'
aS'C'
ag16
aS'F'
aS'C'
ag16
aS'F'
aS'C'
aS'G'
aS'F'
aS'C'
aS'G'
aS'C'
aS'G'
aS'F'
aS'C'
ag16
aS'F'
aS'C'
ag16
aS'F'
aS'C'
ag16
aS'F'
aS'C'
ag16
aS'F'
aS'C'
aS'G'
aS'F'
aS'C'
aS'G'
aS'F'
aS'C'
aS'G'
aS'F'
aa(lp259
S'G'
aS'C'
aS'F'
aS'C'
ag8
aS'C'
aS'G'
aS'F'
aS'G'
aS'C'
aS'F'
aS'C'
aS'G'
aS'C'
aS'F'
aS'C'
ag8
aS'C'
aS'G'
aS'F'
aS'G'
aS'C'
aS'F'
aS'C'
aS'G'
aS'C'
ag6
aS'C'
aS'F'
aS'C'
ag16
aS'F'
aS'G'
aS'C'
ag6
aS'C'
aS'F'
aS'C'
ag16
aS'F'
aS'G'
aS'C'
aS'F'
aS'C'
ag16
aS'F'
aS'G'
aS'C'
aS'F'
aS'C'
aS'G'
aS'C'
ag6
aS'C'
aS'F'
aS'C'
ag16
aS'F'
aS'G'
aS'C'
ag6
aS'C'
aS'F'
aS'C'
ag16
aS'F'
aS'G'
aS'C'
aS'F'
aS'G'
aS'C'
ag6
aS'F'
aS'G'
aS'F'
aS'G'
ag16
ag6
aS'F'
aS'G'
aS'C'
aS'F'
aS'C'
ag16
aS'F'
aS'G'
aS'C'
aS'F'
ag16
aS'F'
aS'G'
aS'F'
ag12
aS'F'
aS'G'
aS'C'
aa(lp260
S'C'
aS'F'
aS'C'
aS'G'
aS'F'
aS'C'
aS'F'
aS'C'
aS'F'
aS'C'
aS'G'
aS'F'
aS'C'
aS'F'
aS'C'
aS'F'
aS'C'
aS'G'
aS'F'
aS'C'
aS'C'
aS'F'
aS'C'
aS'G'
aS'F'
aS'C'
aS'F'
aS'C'
aS'F'
aS'C'
aS'G'
aS'F'
aS'C'
aa(lp261
S'C'
ag6
aS'F'
ag12
aS'G'
aS'C'
ag6
aS'F'
ag12
aS'G'
aS'C'
aS'F'
aS'C'
ag6
aS'F'
aS'G'
aS'C'
ag6
aS'F'
ag12
aS'G'
aS'C'
ag6
aS'F'
ag12
aS'G'
aS'C'
aS'F'
aS'C'
ag6
aS'F'
aS'G'
aS'C'
aS'C'
aS'F'
aS'C'
ag6
aS'F'
aS'G'
aS'C'
ag6
aS'F'
aS'G'
aS'C'
ag6
aS'F'
aS'G'
aS'C'
ag6
aS'C'
ag6
aa(lp262
g21
aS'F'
ag21
ag22
ag13
ag21
aS'F'
ag21
ag22
ag13
ag21
aa(lp263
g21
ag17
ag17
aS'A'
ag16
ag12
ag16
ag6
ag16
aS'F'
aS'G'
aS'C'
aS'F'
aS'C'
aS'F'
aS'C'
aS'F'
aS'C'
ag21
ag17
ag21
ag17
aS'A'
ag12
ag16
ag12
ag16
ag6
ag16
aS'F'
aS'G'
aS'C'
aS'F'
aS'C'
aS'F'
aS'C'
aS'F'
aS'C'
aS'F'
ag21
ag17
ag21
ag17
ag21
ag17
ag21
ag17
ag16
ag12
ag16
ag12
ag16
ag6
ag16
aS'F'
aS'G'
aS'C'
aS'F'
aS'C'
aS'F'
aS'C'
aS'F'
aS'F'
aS'F'
aS'C'
aS'F'
aS'F'
aa(lp264
g28
aS'C'
ag46
ag28
aS'C'
ag46
ag28
aS'A/C#'
p265
aS'G'
aS'C'
ag46
ag28
ag12
aS'G'
ag12
aS'G'
aS'C'
ag46
ag28
aS'C'
ag46
ag28
ag265
aS'G'
aS'C'
ag46
ag28
ag12
aS'G'
ag12
aS'G'
aS'C'
ag46
ag28
aS'C'
ag46
ag28
ag265
aS'G'
aS'C'
ag46
ag28
aS'G'
aa(lp266
S'C'
aS'F'
aS'C'
aS'G'
aS'C'
aS'F'
aS'C'
aS'G'
aS'C'
aS'F'
aS'C'
aS'C'
aS'F'
aS'C'
aS'G'
aS'C'
aS'F'
aS'C'
aS'G'
aS'C'
aS'G'
aS'C'
aS'F'
aS'C'
aS'F'
aS'C'
aS'F'
aS'C'
aS'F'
aS'C'
aa(lp267
g59
ag3
ag59
ag3
ag5
ag54
ag59
ag3
ag59
ag3
ag5
ag54
ag5
ag54
ag5
ag54
ag5
ag54
ag59
ag3
ag59
ag3
aS'FmM7'
p268
ag54
ag59
ag3
ag59
ag3
ag5
ag54
ag5
ag54
ag5
ag54
ag5
ag54
ag59
ag3
ag59
ag3
ag268
ag54
aa(lp269
S'G'
aS'C'
ag46
ag6
ag19
aS'F'
aS'G'
aS'C'
aS'G'
aS'C'
ag46
ag6
ag19
aS'F'
aS'G'
aS'C'
aS'G'
aS'C'
ag46
ag6
ag19
aS'F'
aS'G'
aS'C'
aS'G'
aS'C'
ag46
ag6
ag19
aS'F'
aS'G'
aS'C'
aS'F'
aS'C'
aS'F'
aS'C'
aS'F'
aS'C'
ag6
ag7
aS'G'
aS'C'
ag46
ag6
ag19
aS'F'
aS'G'
aS'C'
aS'G'
aS'C'
ag46
ag6
ag19
aS'F'
aS'G'
aS'C'
aS'G'
aS'C'
ag46
ag6
ag19
aS'F'
aS'G'
aS'C'
aS'G'
aS'C'
ag46
ag6
ag19
aS'F'
aS'G'
aS'C'
aS'G'
aa(lp270
g21
ag13
ag21
ag13
aS'G'
ag21
ag13
ag21
ag13
aS'G'
ag21
ag13
ag21
ag13
aS'G'
ag21
ag13
ag21
ag13
aS'G'
ag13
ag13
ag13
ag22
ag21
ag21
ag13
ag21
ag13
aS'G'
ag21
ag13
ag21
ag13
aS'G'
ag21
ag13
ag21
ag13
aS'G'
ag13
ag13
ag22
ag21
ag13
ag13
ag21
ag13
ag21
ag47
ag13
aS'G'
ag21
ag47
ag13
aS'G'
ag21
ag47
ag13
aS'G'
ag21
ag47
ag13
aS'G'
ag47
ag13
ag21
ag47
aS'G'
ag21
ag47
ag13
aS'G'
ag21
ag47
ag13
aS'G'
ag21
ag47
aS'G'
ag21
ag47
ag21
ag47
ag13
aS'G'
ag21
ag47
ag13
aS'G'
ag21
ag47
ag13
aS'G'
ag21
ag47
ag13
aS'G'
ag21
ag13
aS'G'
ag21
ag47
ag13
aS'G'
ag21
aa(lp271
S'G'
ag21
ag28
ag22
ag21
ag13
aS'G'
ag21
ag28
ag22
ag21
ag13
aS'C'
ag16
ag6
ag16
ag12
aS'G'
aS'C'
ag16
ag6
ag16
ag12
aS'G'
ag21
ag28
ag22
ag21
ag13
aS'G'
ag21
ag28
ag22
ag21
ag13
ag29
aS'G'
aS'C'
ag16
ag6
ag16
ag12
aS'C'
ag16
ag6
ag16
ag12
aS'G'
ag21
ag28
ag22
ag21
ag13
ag21
ag21
ag13
ag29
aS'G'
aa(lp272
S'C'
ag13
aS'C'
ag13
aS'C'
ag13
aS'C'
ag13
aS'C'
aS'C'
aS'C'
aS'C'
aS'C'
aS'C'
ag13
aS'C'
ag13
aS'C'
ag13
aS'C'
ag13
aS'C'
ag13
aS'C'
ag13
aS'C'
ag13
aS'C'
ag13
aS'C'
aS'C'
ag13
aS'C'
aS'C'
ag13
aS'C'
ag13
aS'C'
ag13
aS'C'
ag13
aS'C'
ag13
aS'C'
ag13
ag13
aS'C'
ag13
aS'C'
aS'C'
ag13
aS'C'
aS'C'
ag13
aS'C'
aS'C'
ag13
aS'C'
aS'C'
aS'C'
aS'C'
ag13
aS'C'
ag13
aS'C'
ag13
aS'C'
ag13
aS'C'
aS'F'
aS'C'
aS'C'
aS'C'
ag13
aS'C'
ag13
aS'C'
ag13
aS'C'
ag13
aS'C'
aS'C'
aS'C'
ag13
aS'C'
ag13
aS'C'
aS'C'
aS'C'
aS'C'
aa(lp273
S'C'
aS'F'
aS'C'
aS'G'
aS'F'
aS'C'
aS'F'
aS'C'
aS'G'
aS'F'
aS'C'
aS'F'
aS'C'
aS'G'
aS'F'
aS'C'
aS'C'
aS'F'
aS'C'
aS'G'
aS'F'
aS'C'
aS'F'
aS'C'
aS'G'
aS'F'
aS'C'
aS'F'
aS'G'
aS'F'
aS'C'
aS'F'
aS'C'
aS'G'
aS'F'
aS'C'
aa(lp274
S'C'
ag171
aS'C'
aS'G7/D'
p275
aS'E'
ag6
aS'F'
aS'G'
aS'C'
ag171
aS'C'
ag275
aS'E'
ag6
aS'F'
aS'G'
aS'C'
aS'F'
ag16
aS'F'
aS'C'
aS'F'
ag16
ag6
ag7
aS'F'
aS'G'
aS'C'
ag171
aS'C'
ag275
aS'E'
ag6
aS'F'
aS'G'
aS'C'
ag275
aS'E'
ag6
aS'F'
aS'G'
aS'C'
aS'F'
aS'G'
aS'C'
aS'F'
aS'G'
aS'C'
aa(lp276
S'C'
aS'G'
ag6
aS'F'
aS'C'
aS'G'
aS'C'
aS'G'
ag6
aS'F'
aS'C'
aS'G'
ag6
aS'F'
aS'C'
aS'G'
ag6
aS'C'
aS'G'
ag6
aS'F'
aS'C'
aS'G'
ag6
aS'F'
aS'C'
aS'G'
ag6
aS'F'
aS'G'
ag6
aS'F'
aS'C'
aS'G'
ag6
aS'F'
aS'C'
aS'G'
ag6
aS'F'
aS'C'
ag6
aS'F'
aS'C'
aS'G'
ag6
aS'F'
aS'C'
aS'G'
ag6
aS'F'
aS'C'
aS'G'
ag6
aS'F'
aS'C'
aS'G'
ag6
aS'F'
aS'G'
ag6
aS'C'
aS'G'
ag6
aS'F'
aS'C'
aS'G'
ag6
aS'F'
aS'C'
aS'G'
ag6
aS'F'
aS'G'
ag6
aS'F'
aS'C'
aa(lp277
g48
aS'C'
ag48
aS'C'
ag48
aS'C'
ag48
ag13
aS'C'
ag48
aS'C'
ag48
aS'C'
ag48
aS'G'
ag13
aS'F'
aS'C'
aS'F'
aS'C'
aS'F'
aS'C'
aS'F'
aS'C'
aS'F'
aS'C'
aS'F'
aS'C'
ag13
aS'G'
ag13
aS'G'
ag13
aS'F'
aS'C'
ag48
aS'C'
ag48
aS'C'
ag48
aS'C'
ag48
aS'G'
ag13
aS'C'
ag48
aS'C'
ag48
aS'C'
ag48
aS'G'
ag13
aS'F'
aS'C'
aS'F'
aS'C'
aS'F'
aS'C'
aS'F'
aS'C'
aS'F'
aS'C'
aS'F'
aS'C'
ag13
aS'G'
ag13
aS'G'
ag13
aS'F'
aS'C'
ag13
ag48
aS'D'
aS'G'
aS'C'
aS'D'
aS'F'
aS'C'
ag48
aS'C'
ag48
aS'C'
ag48
ag13
aS'C'
ag48
aS'C'
ag48
aS'C'
ag48
ag13
aS'F'
aS'C'
aS'F'
aS'C'
aS'F'
aS'C'
aS'F'
aS'C'
aS'F'
aS'C'
aS'F'
aS'C'
ag13
aS'G'
ag13
aS'G'
ag13
aS'F'
aS'C'
ag13
aS'F'
ag13
aS'C'
aS'C'
aS'C'
aa(lp278
S'C'
aS'Bm7'
p279
ag111
ag6
aS'Fmaj7'
p280
ag8
aS'C'
ag3
aS'D'
aS'F'
aS'C'
ag279
ag111
ag6
ag280
ag8
aS'C'
ag3
aS'D'
aS'F'
aS'C'
aS'Gsus4'
p281
ag6
aS'F'
ag12
ag8
ag281
ag6
aS'F'
ag12
ag8
aS'C'
ag279
ag111
ag6
ag280
ag8
aS'C'
ag3
aS'D'
aS'F'
aS'C'
ag281
ag6
aS'F'
ag12
ag8
ag281
ag6
aS'F'
ag12
ag8
aS'C'
ag279
ag111
ag6
ag280
ag8
aS'C'
ag3
aS'D'
aS'F'
aS'C'
aS'D/F#'
p282
aS'F'
aS'C'
aa(lp283
S'C'
aS'D'
aS'G'
aS'C'
aS'D'
aS'G'
aS'C'
aS'D'
aS'G'
aa(lp284
S'C'
ag280
ag46
ag16
ag6
aS'F'
ag19
aS'G'
ag53
ag6
aS'C'
ag12
aS'F'
aS'G'
aS'C'
ag280
ag46
ag16
ag6
aS'F'
ag19
aS'G'
ag53
ag6
aS'C'
ag12
aS'F'
ag46
ag6
ag12
aS'F'
ag46
ag6
ag12
aS'F'
ag6
ag171
ag26
ag171
aS'C'
ag280
ag46
ag16
ag6
aS'F'
ag19
aS'G'
ag53
ag6
aS'C'
ag12
aS'F'
aS'G'
aS'C'
ag280
ag46
ag16
ag6
aS'F'
ag19
aS'G'
ag53
aS'C'
ag12
aS'F'
ag46
ag6
ag12
aS'F'
ag46
ag6
ag12
aS'F'
ag6
ag171
ag26
ag171
ag6
ag171
ag26
ag171
aa.